Archive member included because of file (symbol)

D:\Project\MyProject1\mkrtos_real\mkrtos_sdk\Debug\libmkrtos_sdk.a(localtime.o)
                              ./src/tcc/tcc.o (localtime)
D:\Project\MyProject1\mkrtos_real\mkrtos_sdk\Debug\libmkrtos_sdk.a(localtime_r.o)
                              D:\Project\MyProject1\mkrtos_real\mkrtos_sdk\Debug\libmkrtos_sdk.a(localtime.o) (localtime_r)
D:\Project\MyProject1\mkrtos_real\mkrtos_sdk\Debug\libmkrtos_sdk.a(tzfile.o)
                              D:\Project\MyProject1\mkrtos_real\mkrtos_sdk\Debug\libmkrtos_sdk.a(localtime_r.o) (__maplocaltime)
D:\Project\MyProject1\mkrtos_real\mkrtos_sdk\Debug\libmkrtos_sdk.a(fclose.o)
                              ./src/tcc/tcc.o (fclose)
D:\Project\MyProject1\mkrtos_real\mkrtos_sdk\Debug\libmkrtos_sdk.a(fdopen.o)
                              ./src/tcc/tcc.o (fdopen)
D:\Project\MyProject1\mkrtos_real\mkrtos_sdk\Debug\libmkrtos_sdk.a(fflush.o)
                              D:\Project\MyProject1\mkrtos_real\mkrtos_sdk\Debug\libmkrtos_sdk.a(fclose.o) (fflush_unlocked)
D:\Project\MyProject1\mkrtos_real\mkrtos_sdk\Debug\libmkrtos_sdk.a(fopen.o)
                              ./src/tcc/tcc.o (fopen)
D:\Project\MyProject1\mkrtos_real\mkrtos_sdk\Debug\libmkrtos_sdk.a(fprintf.o)
                              ./src/tcc/tcc.o (fprintf)
D:\Project\MyProject1\mkrtos_real\mkrtos_sdk\Debug\libmkrtos_sdk.a(fputc_unlocked.o)
                              ./src/tcc/tcc.o (fputc)
D:\Project\MyProject1\mkrtos_real\mkrtos_sdk\Debug\libmkrtos_sdk.a(fputs.o)
                              ./src/tcc/tcc.o (fputs)
D:\Project\MyProject1\mkrtos_real\mkrtos_sdk\Debug\libmkrtos_sdk.a(fread.o)
                              ./src/tcc/tcc.o (fread)
D:\Project\MyProject1\mkrtos_real\mkrtos_sdk\Debug\libmkrtos_sdk.a(fseek.o)
                              ./src/tcc/tcc.o (fseek)
D:\Project\MyProject1\mkrtos_real\mkrtos_sdk\Debug\libmkrtos_sdk.a(ftell.o)
                              ./src/tcc/tcc.o (ftell)
D:\Project\MyProject1\mkrtos_real\mkrtos_sdk\Debug\libmkrtos_sdk.a(fwrite.o)
                              D:\Project\MyProject1\mkrtos_real\mkrtos_sdk\Debug\libmkrtos_sdk.a(fputs.o) (fwrite_unlocked)
D:\Project\MyProject1\mkrtos_real\mkrtos_sdk\Debug\libmkrtos_sdk.a(printf.o)
                              ./src/tcc/tcc.o (printf)
D:\Project\MyProject1\mkrtos_real\mkrtos_sdk\Debug\libmkrtos_sdk.a(stderr.o)
                              D:\Project\MyProject1\mkrtos_real\mkrtos_sdk\Debug\libmkrtos_sdk.a(fflush.o) (__fflush_stderr)
D:\Project\MyProject1\mkrtos_real\mkrtos_sdk\Debug\libmkrtos_sdk.a(stdin.o)
                              D:\Project\MyProject1\mkrtos_real\mkrtos_sdk\Debug\libmkrtos_sdk.a(fflush.o) (__stdin_is_tty)
D:\Project\MyProject1\mkrtos_real\mkrtos_sdk\Debug\libmkrtos_sdk.a(stdout.o)
                              D:\Project\MyProject1\mkrtos_real\mkrtos_sdk\Debug\libmkrtos_sdk.a(fflush.o) (__fflush_stdout)
D:\Project\MyProject1\mkrtos_real\mkrtos_sdk\Debug\libmkrtos_sdk.a(vfprintf.o)
                              D:\Project\MyProject1\mkrtos_real\mkrtos_sdk\Debug\libmkrtos_sdk.a(fprintf.o) (vfprintf)
D:\Project\MyProject1\mkrtos_real\mkrtos_sdk\Debug\libmkrtos_sdk.a(vprintf.o)
                              D:\Project\MyProject1\mkrtos_real\mkrtos_sdk\Debug\libmkrtos_sdk.a(printf.o) (vprintf)
D:\Project\MyProject1\mkrtos_real\mkrtos_sdk\Debug\libmkrtos_sdk.a(__getcwd.o)
                              ./src/tcc/tcc.o (getcwd)
D:\Project\MyProject1\mkrtos_real\mkrtos_sdk\Debug\libmkrtos_sdk.a(__mmap.o)
                              D:\Project\MyProject1\mkrtos_real\mkrtos_sdk\Debug\libmkrtos_sdk.a(tzfile.o) (mmap)
D:\Project\MyProject1\mkrtos_real\mkrtos_sdk\Debug\libmkrtos_sdk.a(__time.o)
                              ./src/tcc/tcc.o (time)
D:\Project\MyProject1\mkrtos_real\mkrtos_sdk\Debug\libmkrtos_sdk.a(__v_printf.o)
                              D:\Project\MyProject1\mkrtos_real\mkrtos_sdk\Debug\libmkrtos_sdk.a(vfprintf.o) (__v_printf)
D:\Project\MyProject1\mkrtos_real\mkrtos_sdk\Debug\libmkrtos_sdk.a(alloc.o)
                              ./src/tcc/tcc.o (free)
D:\Project\MyProject1\mkrtos_real\mkrtos_sdk\Debug\libmkrtos_sdk.a(atexit.o)
                              D:\Project\MyProject1\mkrtos_real\mkrtos_sdk\Debug\libmkrtos_sdk.a(fflush.o) (atexit)
D:\Project\MyProject1\mkrtos_real\mkrtos_sdk\Debug\libmkrtos_sdk.a(atol.o)
                              ./src/tcc/tcc.o (atoi)
D:\Project\MyProject1\mkrtos_real\mkrtos_sdk\Debug\libmkrtos_sdk.a(errno_location.o)
                              ./src/tcc/tcc.o (__errno_location)
D:\Project\MyProject1\mkrtos_real\mkrtos_sdk\Debug\libmkrtos_sdk.a(getenv.o)
                              ./src/tcc/tcc.o (getenv)
D:\Project\MyProject1\mkrtos_real\mkrtos_sdk\Debug\libmkrtos_sdk.a(htonl.o)
                              D:\Project\MyProject1\mkrtos_real\mkrtos_sdk\Debug\libmkrtos_sdk.a(tzfile.o) (ntohl)
D:\Project\MyProject1\mkrtos_real\mkrtos_sdk\Debug\libmkrtos_sdk.a(isatty.o)
                              D:\Project\MyProject1\mkrtos_real\mkrtos_sdk\Debug\libmkrtos_sdk.a(fwrite.o) (isatty)
D:\Project\MyProject1\mkrtos_real\mkrtos_sdk\Debug\libmkrtos_sdk.a(longjmp.o)
                              ./src/tcc/tcc.o (longjmp)
D:\Project\MyProject1\mkrtos_real\mkrtos_sdk\Debug\libmkrtos_sdk.a(memcmp.o)
                              ./src/tcc/tcc.o (memcmp)
D:\Project\MyProject1\mkrtos_real\mkrtos_sdk\Debug\libmkrtos_sdk.a(memcpy.o)
                              ./src/tcc/tcc.o (memcpy)
D:\Project\MyProject1\mkrtos_real\mkrtos_sdk\Debug\libmkrtos_sdk.a(memmove.o)
                              ./src/tcc/tcc.o (memmove)
D:\Project\MyProject1\mkrtos_real\mkrtos_sdk\Debug\libmkrtos_sdk.a(memset.o)
                              ./src/tcc/tcc.o (memset)
D:\Project\MyProject1\mkrtos_real\mkrtos_sdk\Debug\libmkrtos_sdk.a(qsort.o)
                              ./src/tcc/tcc.o (qsort)
D:\Project\MyProject1\mkrtos_real\mkrtos_sdk\Debug\libmkrtos_sdk.a(rand.o)
                              D:\Project\MyProject1\mkrtos_real\mkrtos_sdk\Debug\libmkrtos_sdk.a(qsort.o) (rand)
D:\Project\MyProject1\mkrtos_real\mkrtos_sdk\Debug\libmkrtos_sdk.a(rand_r.o)
                              D:\Project\MyProject1\mkrtos_real\mkrtos_sdk\Debug\libmkrtos_sdk.a(rand.o) (rand_r)
D:\Project\MyProject1\mkrtos_real\mkrtos_sdk\Debug\libmkrtos_sdk.a(remove.o)
                              ./src/tcc/tcc.o (remove)
D:\Project\MyProject1\mkrtos_real\mkrtos_sdk\Debug\libmkrtos_sdk.a(sigprocmask.o)
                              D:\Project\MyProject1\mkrtos_real\mkrtos_sdk\Debug\libmkrtos_sdk.a(longjmp.o) (sigprocmask)
D:\Project\MyProject1\mkrtos_real\mkrtos_sdk\Debug\libmkrtos_sdk.a(snprintf.o)
                              ./src/tcc/tcc.o (snprintf)
D:\Project\MyProject1\mkrtos_real\mkrtos_sdk\Debug\libmkrtos_sdk.a(sprintf.o)
                              ./src/tcc/tcc.o (sprintf)
D:\Project\MyProject1\mkrtos_real\mkrtos_sdk\Debug\libmkrtos_sdk.a(sscanf.o)
                              ./src/tcc/tcc.o (sscanf)
D:\Project\MyProject1\mkrtos_real\mkrtos_sdk\Debug\libmkrtos_sdk.a(strchr.o)
                              ./src/tcc/tcc.o (strchr)
D:\Project\MyProject1\mkrtos_real\mkrtos_sdk\Debug\libmkrtos_sdk.a(strcmp.o)
                              ./src/tcc/tcc.o (strcmp)
D:\Project\MyProject1\mkrtos_real\mkrtos_sdk\Debug\libmkrtos_sdk.a(strcpy.o)
                              ./src/tcc/tcc.o (strcpy)
D:\Project\MyProject1\mkrtos_real\mkrtos_sdk\Debug\libmkrtos_sdk.a(strerror.o)
                              ./src/tcc/tcc.o (strerror)
D:\Project\MyProject1\mkrtos_real\mkrtos_sdk\Debug\libmkrtos_sdk.a(strlen.o)
                              ./src/tcc/tcc.o (strlen)
D:\Project\MyProject1\mkrtos_real\mkrtos_sdk\Debug\libmkrtos_sdk.a(strncmp.o)
                              ./src/tcc/tcc.o (strncmp)
D:\Project\MyProject1\mkrtos_real\mkrtos_sdk\Debug\libmkrtos_sdk.a(strncpy.o)
                              ./src/tcc/tcc.o (strncpy)
D:\Project\MyProject1\mkrtos_real\mkrtos_sdk\Debug\libmkrtos_sdk.a(strrchr.o)
                              ./src/tcc/tcc.o (strrchr)
D:\Project\MyProject1\mkrtos_real\mkrtos_sdk\Debug\libmkrtos_sdk.a(strstr.o)
                              ./src/tcc/tcc.o (strstr)
D:\Project\MyProject1\mkrtos_real\mkrtos_sdk\Debug\libmkrtos_sdk.a(strtol.o)
                              ./src/tcc/tcc.o (strtol)
D:\Project\MyProject1\mkrtos_real\mkrtos_sdk\Debug\libmkrtos_sdk.a(strtoll.o)
                              ./src/tcc/tcc.o (strtoll)
D:\Project\MyProject1\mkrtos_real\mkrtos_sdk\Debug\libmkrtos_sdk.a(strtoul.o)
                              ./src/tcc/tcc.o (strtoul)
D:\Project\MyProject1\mkrtos_real\mkrtos_sdk\Debug\libmkrtos_sdk.a(strtoull.o)
                              ./src/tcc/tcc.o (strtoull)
D:\Project\MyProject1\mkrtos_real\mkrtos_sdk\Debug\libmkrtos_sdk.a(vsnprintf.o)
                              ./src/tcc/tcc.o (vsnprintf)
D:\Project\MyProject1\mkrtos_real\mkrtos_sdk\Debug\libmkrtos_sdk.a(vsprintf.o)
                              D:\Project\MyProject1\mkrtos_real\mkrtos_sdk\Debug\libmkrtos_sdk.a(sprintf.o) (vsprintf)
D:\Project\MyProject1\mkrtos_real\mkrtos_sdk\Debug\libmkrtos_sdk.a(vsscanf.o)
                              D:\Project\MyProject1\mkrtos_real\mkrtos_sdk\Debug\libmkrtos_sdk.a(sscanf.o) (vsscanf)
D:\Project\MyProject1\mkrtos_real\mkrtos_sdk\Debug\libmkrtos_sdk.a(dyn_syscalls.o)
                              D:\Project\MyProject1\mkrtos_real\mkrtos_sdk\Debug\libmkrtos_sdk.a(getenv.o) (environ)
D:\Project\MyProject1\mkrtos_real\mkrtos_sdk\Debug\libmkrtos_sdk.a(start.o)
                              D:\Project\MyProject1\mkrtos_real\mkrtos_sdk\Debug\libmkrtos_sdk.a(atexit.o) (_exit)
D:\Project\MyProject1\mkrtos_real\mkrtos_sdk\Debug\libmkrtos_sdk.a(stackgap-g.o)
                              D:\Project\MyProject1\mkrtos_real\mkrtos_sdk\Debug\libmkrtos_sdk.a(start.o) (stackgap)
D:\Project\MyProject1\mkrtos_real\mkrtos_sdk\Debug\libmkrtos_sdk.a(start.o)
                              (_start_)
D:\Project\MyProject1\mkrtos_real\mkrtos_sdk\Debug\libmkrtos_sdk.a(gmtime_r.o)
                              D:\Project\MyProject1\mkrtos_real\mkrtos_sdk\Debug\libmkrtos_sdk.a(localtime_r.o) (gmtime_r)
D:\Project\MyProject1\mkrtos_real\mkrtos_sdk\Debug\libmkrtos_sdk.a(isleap.o)
                              D:\Project\MyProject1\mkrtos_real\mkrtos_sdk\Debug\libmkrtos_sdk.a(gmtime_r.o) (__isleap)
D:\Project\MyProject1\mkrtos_real\mkrtos_sdk\Debug\libmkrtos_sdk.a(time_table_spd.o)
                              D:\Project\MyProject1\mkrtos_real\mkrtos_sdk\Debug\libmkrtos_sdk.a(gmtime_r.o) (__spm)
D:\Project\MyProject1\mkrtos_real\mkrtos_sdk\Debug\libmkrtos_sdk.a(timezone.o)
                              D:\Project\MyProject1\mkrtos_real\mkrtos_sdk\Debug\libmkrtos_sdk.a(tzfile.o) (daylight)
D:\Project\MyProject1\mkrtos_real\mkrtos_sdk\Debug\libmkrtos_sdk.a(fdglue.o)
                              D:\Project\MyProject1\mkrtos_real\mkrtos_sdk\Debug\libmkrtos_sdk.a(fdopen.o) (__stdio_parse_mode)
D:\Project\MyProject1\mkrtos_real\mkrtos_sdk\Debug\libmkrtos_sdk.a(fdglue2.o)
                              D:\Project\MyProject1\mkrtos_real\mkrtos_sdk\Debug\libmkrtos_sdk.a(fdopen.o) (__stdio_init_file)
D:\Project\MyProject1\mkrtos_real\mkrtos_sdk\Debug\libmkrtos_sdk.a(fgetc_unlocked.o)
                              D:\Project\MyProject1\mkrtos_real\mkrtos_sdk\Debug\libmkrtos_sdk.a(fread.o) (fgetc_unlocked)
D:\Project\MyProject1\mkrtos_real\mkrtos_sdk\Debug\libmkrtos_sdk.a(__ltostr.o)
                              D:\Project\MyProject1\mkrtos_real\mkrtos_sdk\Debug\libmkrtos_sdk.a(__v_printf.o) (__ltostr)
D:\Project\MyProject1\mkrtos_real\mkrtos_sdk\Debug\libmkrtos_sdk.a(__v_scanf.o)
                              D:\Project\MyProject1\mkrtos_real\mkrtos_sdk\Debug\libmkrtos_sdk.a(vsscanf.o) (__v_scanf)
D:\Project\MyProject1\mkrtos_real\mkrtos_sdk\Debug\libmkrtos_sdk.a(errlistu.o)
                              D:\Project\MyProject1\mkrtos_real\mkrtos_sdk\Debug\libmkrtos_sdk.a(strerror.o) (__sys_err_unknown)
D:\Project\MyProject1\mkrtos_real\mkrtos_sdk\Debug\libmkrtos_sdk.a(isalnum.o)
                              D:\Project\MyProject1\mkrtos_real\mkrtos_sdk\Debug\libmkrtos_sdk.a(strtol.o) (isalnum)
D:\Project\MyProject1\mkrtos_real\mkrtos_sdk\Debug\libmkrtos_sdk.a(isspace.o)
                              D:\Project\MyProject1\mkrtos_real\mkrtos_sdk\Debug\libmkrtos_sdk.a(strtol.o) (isspace)
D:\Project\MyProject1\mkrtos_real\mkrtos_sdk\Debug\libmkrtos_sdk.a(isxdigit.o)
                              D:\Project\MyProject1\mkrtos_real\mkrtos_sdk\Debug\libmkrtos_sdk.a(strtoul.o) (isxdigit)
D:\Project\MyProject1\mkrtos_real\mkrtos_sdk\Debug\libmkrtos_sdk.a(memccpy.o)
                              D:\Project\MyProject1\mkrtos_real\mkrtos_sdk\Debug\libmkrtos_sdk.a(strncpy.o) (memccpy)
D:\Project\MyProject1\mkrtos_real\mkrtos_sdk\Debug\libmkrtos_sdk.a(sigjmp.o)
                              D:\Project\MyProject1\mkrtos_real\mkrtos_sdk\Debug\libmkrtos_sdk.a(dyn_syscalls.o) (__sigjmp_save)
D:\Project\MyProject1\mkrtos_real\mkrtos_sdk\Debug\libmkrtos_sdk.a(arm_set_tls.o)
                              D:\Project\MyProject1\mkrtos_real\mkrtos_sdk\Debug\libmkrtos_sdk.a(stackgap-g.o) (__arm_set_tls)
D:\Project\MyProject1\mkrtos_real\mkrtos_sdk\Debug\libmkrtos_sdk.a(__main.o)
                              D:\Project\MyProject1\mkrtos_real\mkrtos_sdk\Debug\libmkrtos_sdk.a(start.o) (__main)
D:\Project\MyProject1\mkrtos_real\mkrtos_sdk\Debug\libmkrtos_sdk.a(reloc.o)
                              D:\Project\MyProject1\mkrtos_real\mkrtos_sdk\Debug\libmkrtos_sdk.a(start.o) (reloc)
D:\Project\MyProject1\mkrtos_real\mkrtos_sdk\Debug\libmkrtos_sdk.a(feof.o)
                              D:\Project\MyProject1\mkrtos_real\mkrtos_sdk\Debug\libmkrtos_sdk.a(fgetc_unlocked.o) (feof_unlocked)
D:\Program Files (x86)\GNU Tools ARM Embedded\4.9 2014q4\lib\gcc\arm-none-eabi\4.9.3\armv7-m\libgcc.a(_lshrdi3.o)
                              ./src/tcc/tcc.o (__aeabi_llsr)
D:\Program Files (x86)\GNU Tools ARM Embedded\4.9 2014q4\lib\gcc\arm-none-eabi\4.9.3\armv7-m\libgcc.a(_ashldi3.o)
                              ./src/tcc/tcc.o (__aeabi_llsl)
D:\Program Files (x86)\GNU Tools ARM Embedded\4.9 2014q4\lib\gcc\arm-none-eabi\4.9.3\armv7-m\libgcc.a(_arm_addsubdf3.o)
                              ./src/tcc/tcc.o (__aeabi_dsub)
D:\Program Files (x86)\GNU Tools ARM Embedded\4.9 2014q4\lib\gcc\arm-none-eabi\4.9.3\armv7-m\libgcc.a(_arm_muldivdf3.o)
                              ./src/tcc/tcc.o (__aeabi_dmul)
D:\Program Files (x86)\GNU Tools ARM Embedded\4.9 2014q4\lib\gcc\arm-none-eabi\4.9.3\armv7-m\libgcc.a(_arm_cmpdf2.o)
                              ./src/tcc/tcc.o (__aeabi_dcmpeq)
D:\Program Files (x86)\GNU Tools ARM Embedded\4.9 2014q4\lib\gcc\arm-none-eabi\4.9.3\armv7-m\libgcc.a(_arm_truncdfsf2.o)
                              ./src/tcc/tcc.o (__aeabi_d2f)
D:\Program Files (x86)\GNU Tools ARM Embedded\4.9 2014q4\lib\gcc\arm-none-eabi\4.9.3\armv7-m\libgcc.a(_arm_cmpsf2.o)
                              ./src/tcc/tcc.o (__aeabi_fcmpeq)
D:\Program Files (x86)\GNU Tools ARM Embedded\4.9 2014q4\lib\gcc\arm-none-eabi\4.9.3\armv7-m\libgcc.a(_aeabi_uldivmod.o)
                              ./src/tcc/tcc.o (__aeabi_uldivmod)
D:\Program Files (x86)\GNU Tools ARM Embedded\4.9 2014q4\lib\gcc\arm-none-eabi\4.9.3\armv7-m\libgcc.a(_fixunsdfdi.o)
                              ./src/tcc/tcc.o (__aeabi_d2ulz)
D:\Program Files (x86)\GNU Tools ARM Embedded\4.9 2014q4\lib\gcc\arm-none-eabi\4.9.3\armv7-m\libgcc.a(bpabi.o)
                              D:\Program Files (x86)\GNU Tools ARM Embedded\4.9 2014q4\lib\gcc\arm-none-eabi\4.9.3\armv7-m\libgcc.a(_aeabi_uldivmod.o) (__gnu_uldivmod_helper)
D:\Program Files (x86)\GNU Tools ARM Embedded\4.9 2014q4\lib\gcc\arm-none-eabi\4.9.3\armv7-m\libgcc.a(_dvmd_tls.o)
                              D:\Program Files (x86)\GNU Tools ARM Embedded\4.9 2014q4\lib\gcc\arm-none-eabi\4.9.3\armv7-m\libgcc.a(_aeabi_uldivmod.o) (__aeabi_ldiv0)
D:\Program Files (x86)\GNU Tools ARM Embedded\4.9 2014q4\lib\gcc\arm-none-eabi\4.9.3\armv7-m\libgcc.a(_arm_fixunsdfsi.o)
                              D:\Program Files (x86)\GNU Tools ARM Embedded\4.9 2014q4\lib\gcc\arm-none-eabi\4.9.3\armv7-m\libgcc.a(_fixunsdfdi.o) (__aeabi_d2uiz)
D:\Program Files (x86)\GNU Tools ARM Embedded\4.9 2014q4\lib\gcc\arm-none-eabi\4.9.3\armv7-m\libgcc.a(_divdi3.o)
                              D:\Program Files (x86)\GNU Tools ARM Embedded\4.9 2014q4\lib\gcc\arm-none-eabi\4.9.3\armv7-m\libgcc.a(bpabi.o) (__divdi3)
D:\Program Files (x86)\GNU Tools ARM Embedded\4.9 2014q4\lib\gcc\arm-none-eabi\4.9.3\armv7-m\libgcc.a(_udivdi3.o)
                              D:\Program Files (x86)\GNU Tools ARM Embedded\4.9 2014q4\lib\gcc\arm-none-eabi\4.9.3\armv7-m\libgcc.a(bpabi.o) (__udivdi3)

Allocating common symbols
Common symbol       size              file

__tdataptr          0x4               D:\Project\MyProject1\mkrtos_real\mkrtos_sdk\Debug\libmkrtos_sdk.a(stackgap-g.o)
__tdatasize         0x4               D:\Project\MyProject1\mkrtos_real\mkrtos_sdk\Debug\libmkrtos_sdk.a(stackgap-g.o)
daylight            0x4               D:\Project\MyProject1\mkrtos_real\mkrtos_sdk\Debug\libmkrtos_sdk.a(timezone.o)
float_abi           0x1               ./src/tcc/tcc.o
__tcb_mainthread    0x4               D:\Project\MyProject1\mkrtos_real\mkrtos_sdk\Debug\libmkrtos_sdk.a(stackgap-g.o)
__vdso              0x4               D:\Project\MyProject1\mkrtos_real\mkrtos_sdk\Debug\libmkrtos_sdk.a(stackgap-g.o)
timezone            0x4               D:\Project\MyProject1\mkrtos_real\mkrtos_sdk\Debug\libmkrtos_sdk.a(timezone.o)
program_invocation_short_name
                    0x4               D:\Project\MyProject1\mkrtos_real\mkrtos_sdk\Debug\libmkrtos_sdk.a(stackgap-g.o)
__tmemsize          0x4               D:\Project\MyProject1\mkrtos_real\mkrtos_sdk\Debug\libmkrtos_sdk.a(stackgap-g.o)
__stdio_root        0x4               D:\Project\MyProject1\mkrtos_real\mkrtos_sdk\Debug\libmkrtos_sdk.a(fflush.o)
program_invocation_name
                    0x4               D:\Project\MyProject1\mkrtos_real\mkrtos_sdk\Debug\libmkrtos_sdk.a(stackgap-g.o)

Discarded input sections

 .text          0x00000000        0x0 ./src/tcc/tcc.o
 .data          0x00000000        0x0 ./src/tcc/tcc.o
 .bss           0x00000000        0x0 ./src/tcc/tcc.o
 .text.tcc_list_symbols
                0x00000000       0x48 ./src/tcc/tcc.o
 .text.tcc_set_error_func
                0x00000000        0xa ./src/tcc/tcc.o
 .text.tcc_get_error_func
                0x00000000        0x6 ./src/tcc/tcc.o
 .text.tcc_get_error_opaque
                0x00000000        0x6 ./src/tcc/tcc.o
 .text.tcc_get_symbol
                0x00000000       0x14 ./src/tcc/tcc.o
 .text.tcc_add_symbol
                0x00000000       0x36 ./src/tcc/tcc.o
 .text          0x00000000        0x0 ./src/tcc/tcctools.o
 .data          0x00000000        0x0 ./src/tcc/tcctools.o
 .bss           0x00000000        0x0 ./src/tcc/tcctools.o
 .debug_info    0x00000000     0x1511 ./src/tcc/tcctools.o
 .debug_abbrev  0x00000000      0x1c6 ./src/tcc/tcctools.o
 .debug_aranges
                0x00000000       0x18 ./src/tcc/tcctools.o
 .debug_line    0x00000000       0xbe ./src/tcc/tcctools.o
 .debug_str     0x00000000      0xead ./src/tcc/tcctools.o
 .comment       0x00000000       0x71 ./src/tcc/tcctools.o
 .ARM.attributes
                0x00000000       0x33 ./src/tcc/tcctools.o
 .text          0x00000000        0x0 D:\Project\MyProject1\mkrtos_real\mkrtos_sdk\Debug\libmkrtos_sdk.a(localtime.o)
 .data          0x00000000        0x0 D:\Project\MyProject1\mkrtos_real\mkrtos_sdk\Debug\libmkrtos_sdk.a(localtime.o)
 .bss           0x00000000        0x0 D:\Project\MyProject1\mkrtos_real\mkrtos_sdk\Debug\libmkrtos_sdk.a(localtime.o)
 .text          0x00000000        0x0 D:\Project\MyProject1\mkrtos_real\mkrtos_sdk\Debug\libmkrtos_sdk.a(localtime_r.o)
 .data          0x00000000        0x0 D:\Project\MyProject1\mkrtos_real\mkrtos_sdk\Debug\libmkrtos_sdk.a(localtime_r.o)
 .bss           0x00000000        0x0 D:\Project\MyProject1\mkrtos_real\mkrtos_sdk\Debug\libmkrtos_sdk.a(localtime_r.o)
 .text          0x00000000        0x0 D:\Project\MyProject1\mkrtos_real\mkrtos_sdk\Debug\libmkrtos_sdk.a(tzfile.o)
 .data          0x00000000        0x0 D:\Project\MyProject1\mkrtos_real\mkrtos_sdk\Debug\libmkrtos_sdk.a(tzfile.o)
 .bss           0x00000000        0x0 D:\Project\MyProject1\mkrtos_real\mkrtos_sdk\Debug\libmkrtos_sdk.a(tzfile.o)
 .text.tzset    0x00000000       0x1a D:\Project\MyProject1\mkrtos_real\mkrtos_sdk\Debug\libmkrtos_sdk.a(tzfile.o)
 .text          0x00000000        0x0 D:\Project\MyProject1\mkrtos_real\mkrtos_sdk\Debug\libmkrtos_sdk.a(fclose.o)
 .data          0x00000000        0x0 D:\Project\MyProject1\mkrtos_real\mkrtos_sdk\Debug\libmkrtos_sdk.a(fclose.o)
 .bss           0x00000000        0x0 D:\Project\MyProject1\mkrtos_real\mkrtos_sdk\Debug\libmkrtos_sdk.a(fclose.o)
 .text          0x00000000        0x0 D:\Project\MyProject1\mkrtos_real\mkrtos_sdk\Debug\libmkrtos_sdk.a(fdopen.o)
 .data          0x00000000        0x0 D:\Project\MyProject1\mkrtos_real\mkrtos_sdk\Debug\libmkrtos_sdk.a(fdopen.o)
 .bss           0x00000000        0x0 D:\Project\MyProject1\mkrtos_real\mkrtos_sdk\Debug\libmkrtos_sdk.a(fdopen.o)
 .text          0x00000000        0x0 D:\Project\MyProject1\mkrtos_real\mkrtos_sdk\Debug\libmkrtos_sdk.a(fflush.o)
 .data          0x00000000        0x0 D:\Project\MyProject1\mkrtos_real\mkrtos_sdk\Debug\libmkrtos_sdk.a(fflush.o)
 .bss           0x00000000        0x0 D:\Project\MyProject1\mkrtos_real\mkrtos_sdk\Debug\libmkrtos_sdk.a(fflush.o)
 .gnu.warning.fflush
                0x00000000        0x0 D:\Project\MyProject1\mkrtos_real\mkrtos_sdk\Debug\libmkrtos_sdk.a(fflush.o)
 .text          0x00000000        0x0 D:\Project\MyProject1\mkrtos_real\mkrtos_sdk\Debug\libmkrtos_sdk.a(fopen.o)
 .data          0x00000000        0x0 D:\Project\MyProject1\mkrtos_real\mkrtos_sdk\Debug\libmkrtos_sdk.a(fopen.o)
 .bss           0x00000000        0x0 D:\Project\MyProject1\mkrtos_real\mkrtos_sdk\Debug\libmkrtos_sdk.a(fopen.o)
 .text          0x00000000        0x0 D:\Project\MyProject1\mkrtos_real\mkrtos_sdk\Debug\libmkrtos_sdk.a(fprintf.o)
 .data          0x00000000        0x0 D:\Project\MyProject1\mkrtos_real\mkrtos_sdk\Debug\libmkrtos_sdk.a(fprintf.o)
 .bss           0x00000000        0x0 D:\Project\MyProject1\mkrtos_real\mkrtos_sdk\Debug\libmkrtos_sdk.a(fprintf.o)
 .text          0x00000000        0x0 D:\Project\MyProject1\mkrtos_real\mkrtos_sdk\Debug\libmkrtos_sdk.a(fputc_unlocked.o)
 .data          0x00000000        0x0 D:\Project\MyProject1\mkrtos_real\mkrtos_sdk\Debug\libmkrtos_sdk.a(fputc_unlocked.o)
 .bss           0x00000000        0x0 D:\Project\MyProject1\mkrtos_real\mkrtos_sdk\Debug\libmkrtos_sdk.a(fputc_unlocked.o)
 .text          0x00000000        0x0 D:\Project\MyProject1\mkrtos_real\mkrtos_sdk\Debug\libmkrtos_sdk.a(fputs.o)
 .data          0x00000000        0x0 D:\Project\MyProject1\mkrtos_real\mkrtos_sdk\Debug\libmkrtos_sdk.a(fputs.o)
 .bss           0x00000000        0x0 D:\Project\MyProject1\mkrtos_real\mkrtos_sdk\Debug\libmkrtos_sdk.a(fputs.o)
 .text          0x00000000        0x0 D:\Project\MyProject1\mkrtos_real\mkrtos_sdk\Debug\libmkrtos_sdk.a(fread.o)
 .data          0x00000000        0x0 D:\Project\MyProject1\mkrtos_real\mkrtos_sdk\Debug\libmkrtos_sdk.a(fread.o)
 .bss           0x00000000        0x0 D:\Project\MyProject1\mkrtos_real\mkrtos_sdk\Debug\libmkrtos_sdk.a(fread.o)
 .text          0x00000000        0x0 D:\Project\MyProject1\mkrtos_real\mkrtos_sdk\Debug\libmkrtos_sdk.a(fseek.o)
 .data          0x00000000        0x0 D:\Project\MyProject1\mkrtos_real\mkrtos_sdk\Debug\libmkrtos_sdk.a(fseek.o)
 .bss           0x00000000        0x0 D:\Project\MyProject1\mkrtos_real\mkrtos_sdk\Debug\libmkrtos_sdk.a(fseek.o)
 .text          0x00000000        0x0 D:\Project\MyProject1\mkrtos_real\mkrtos_sdk\Debug\libmkrtos_sdk.a(ftell.o)
 .data          0x00000000        0x0 D:\Project\MyProject1\mkrtos_real\mkrtos_sdk\Debug\libmkrtos_sdk.a(ftell.o)
 .bss           0x00000000        0x0 D:\Project\MyProject1\mkrtos_real\mkrtos_sdk\Debug\libmkrtos_sdk.a(ftell.o)
 .text          0x00000000        0x0 D:\Project\MyProject1\mkrtos_real\mkrtos_sdk\Debug\libmkrtos_sdk.a(fwrite.o)
 .data          0x00000000        0x0 D:\Project\MyProject1\mkrtos_real\mkrtos_sdk\Debug\libmkrtos_sdk.a(fwrite.o)
 .bss           0x00000000        0x0 D:\Project\MyProject1\mkrtos_real\mkrtos_sdk\Debug\libmkrtos_sdk.a(fwrite.o)
 .text          0x00000000        0x0 D:\Project\MyProject1\mkrtos_real\mkrtos_sdk\Debug\libmkrtos_sdk.a(printf.o)
 .data          0x00000000        0x0 D:\Project\MyProject1\mkrtos_real\mkrtos_sdk\Debug\libmkrtos_sdk.a(printf.o)
 .bss           0x00000000        0x0 D:\Project\MyProject1\mkrtos_real\mkrtos_sdk\Debug\libmkrtos_sdk.a(printf.o)
 .text          0x00000000        0x0 D:\Project\MyProject1\mkrtos_real\mkrtos_sdk\Debug\libmkrtos_sdk.a(stderr.o)
 .data          0x00000000        0x0 D:\Project\MyProject1\mkrtos_real\mkrtos_sdk\Debug\libmkrtos_sdk.a(stderr.o)
 .bss           0x00000000        0x0 D:\Project\MyProject1\mkrtos_real\mkrtos_sdk\Debug\libmkrtos_sdk.a(stderr.o)
 .text          0x00000000        0x0 D:\Project\MyProject1\mkrtos_real\mkrtos_sdk\Debug\libmkrtos_sdk.a(stdin.o)
 .data          0x00000000        0x0 D:\Project\MyProject1\mkrtos_real\mkrtos_sdk\Debug\libmkrtos_sdk.a(stdin.o)
 .bss           0x00000000        0x0 D:\Project\MyProject1\mkrtos_real\mkrtos_sdk\Debug\libmkrtos_sdk.a(stdin.o)
 .text.__fflush_stdin
                0x00000000       0x10 D:\Project\MyProject1\mkrtos_real\mkrtos_sdk\Debug\libmkrtos_sdk.a(stdin.o)
 .data.rel.local.__stdin
                0x00000000       0x34 D:\Project\MyProject1\mkrtos_real\mkrtos_sdk\Debug\libmkrtos_sdk.a(stdin.o)
 .data.rel.local.stdin
                0x00000000        0x4 D:\Project\MyProject1\mkrtos_real\mkrtos_sdk\Debug\libmkrtos_sdk.a(stdin.o)
 .bss.__stdin_buf
                0x00000000      0x800 D:\Project\MyProject1\mkrtos_real\mkrtos_sdk\Debug\libmkrtos_sdk.a(stdin.o)
 .text          0x00000000        0x0 D:\Project\MyProject1\mkrtos_real\mkrtos_sdk\Debug\libmkrtos_sdk.a(stdout.o)
 .data          0x00000000        0x0 D:\Project\MyProject1\mkrtos_real\mkrtos_sdk\Debug\libmkrtos_sdk.a(stdout.o)
 .bss           0x00000000        0x0 D:\Project\MyProject1\mkrtos_real\mkrtos_sdk\Debug\libmkrtos_sdk.a(stdout.o)
 .text          0x00000000        0x0 D:\Project\MyProject1\mkrtos_real\mkrtos_sdk\Debug\libmkrtos_sdk.a(vfprintf.o)
 .data          0x00000000        0x0 D:\Project\MyProject1\mkrtos_real\mkrtos_sdk\Debug\libmkrtos_sdk.a(vfprintf.o)
 .bss           0x00000000        0x0 D:\Project\MyProject1\mkrtos_real\mkrtos_sdk\Debug\libmkrtos_sdk.a(vfprintf.o)
 .text          0x00000000        0x0 D:\Project\MyProject1\mkrtos_real\mkrtos_sdk\Debug\libmkrtos_sdk.a(vprintf.o)
 .data          0x00000000        0x0 D:\Project\MyProject1\mkrtos_real\mkrtos_sdk\Debug\libmkrtos_sdk.a(vprintf.o)
 .bss           0x00000000        0x0 D:\Project\MyProject1\mkrtos_real\mkrtos_sdk\Debug\libmkrtos_sdk.a(vprintf.o)
 .text.__stdio_outs
                0x00000000       0x18 D:\Project\MyProject1\mkrtos_real\mkrtos_sdk\Debug\libmkrtos_sdk.a(vprintf.o)
 .text          0x00000000        0x0 D:\Project\MyProject1\mkrtos_real\mkrtos_sdk\Debug\libmkrtos_sdk.a(__getcwd.o)
 .data          0x00000000        0x0 D:\Project\MyProject1\mkrtos_real\mkrtos_sdk\Debug\libmkrtos_sdk.a(__getcwd.o)
 .bss           0x00000000        0x0 D:\Project\MyProject1\mkrtos_real\mkrtos_sdk\Debug\libmkrtos_sdk.a(__getcwd.o)
 .text          0x00000000        0x0 D:\Project\MyProject1\mkrtos_real\mkrtos_sdk\Debug\libmkrtos_sdk.a(__mmap.o)
 .data          0x00000000        0x0 D:\Project\MyProject1\mkrtos_real\mkrtos_sdk\Debug\libmkrtos_sdk.a(__mmap.o)
 .bss           0x00000000        0x0 D:\Project\MyProject1\mkrtos_real\mkrtos_sdk\Debug\libmkrtos_sdk.a(__mmap.o)
 .text          0x00000000        0x0 D:\Project\MyProject1\mkrtos_real\mkrtos_sdk\Debug\libmkrtos_sdk.a(__time.o)
 .data          0x00000000        0x0 D:\Project\MyProject1\mkrtos_real\mkrtos_sdk\Debug\libmkrtos_sdk.a(__time.o)
 .bss           0x00000000        0x0 D:\Project\MyProject1\mkrtos_real\mkrtos_sdk\Debug\libmkrtos_sdk.a(__time.o)
 .text          0x00000000        0x0 D:\Project\MyProject1\mkrtos_real\mkrtos_sdk\Debug\libmkrtos_sdk.a(__v_printf.o)
 .data          0x00000000        0x0 D:\Project\MyProject1\mkrtos_real\mkrtos_sdk\Debug\libmkrtos_sdk.a(__v_printf.o)
 .bss           0x00000000        0x0 D:\Project\MyProject1\mkrtos_real\mkrtos_sdk\Debug\libmkrtos_sdk.a(__v_printf.o)
 .gnu.warning.__v_printf
                0x00000000        0x0 D:\Project\MyProject1\mkrtos_real\mkrtos_sdk\Debug\libmkrtos_sdk.a(__v_printf.o)
 .text          0x00000000        0x0 D:\Project\MyProject1\mkrtos_real\mkrtos_sdk\Debug\libmkrtos_sdk.a(alloc.o)
 .data          0x00000000        0x0 D:\Project\MyProject1\mkrtos_real\mkrtos_sdk\Debug\libmkrtos_sdk.a(alloc.o)
 .bss           0x00000000        0x0 D:\Project\MyProject1\mkrtos_real\mkrtos_sdk\Debug\libmkrtos_sdk.a(alloc.o)
 .text.__libc_calloc
                0x00000000       0x22 D:\Project\MyProject1\mkrtos_real\mkrtos_sdk\Debug\libmkrtos_sdk.a(alloc.o)
 .text          0x00000000        0x0 D:\Project\MyProject1\mkrtos_real\mkrtos_sdk\Debug\libmkrtos_sdk.a(atexit.o)
 .data          0x00000000        0x0 D:\Project\MyProject1\mkrtos_real\mkrtos_sdk\Debug\libmkrtos_sdk.a(atexit.o)
 .bss           0x00000000        0x0 D:\Project\MyProject1\mkrtos_real\mkrtos_sdk\Debug\libmkrtos_sdk.a(atexit.o)
 .text          0x00000000        0x0 D:\Project\MyProject1\mkrtos_real\mkrtos_sdk\Debug\libmkrtos_sdk.a(atol.o)
 .data          0x00000000        0x0 D:\Project\MyProject1\mkrtos_real\mkrtos_sdk\Debug\libmkrtos_sdk.a(atol.o)
 .bss           0x00000000        0x0 D:\Project\MyProject1\mkrtos_real\mkrtos_sdk\Debug\libmkrtos_sdk.a(atol.o)
 .text          0x00000000        0x0 D:\Project\MyProject1\mkrtos_real\mkrtos_sdk\Debug\libmkrtos_sdk.a(errno_location.o)
 .data          0x00000000        0x0 D:\Project\MyProject1\mkrtos_real\mkrtos_sdk\Debug\libmkrtos_sdk.a(errno_location.o)
 .bss           0x00000000        0x0 D:\Project\MyProject1\mkrtos_real\mkrtos_sdk\Debug\libmkrtos_sdk.a(errno_location.o)
 .text          0x00000000        0x0 D:\Project\MyProject1\mkrtos_real\mkrtos_sdk\Debug\libmkrtos_sdk.a(getenv.o)
 .data          0x00000000        0x0 D:\Project\MyProject1\mkrtos_real\mkrtos_sdk\Debug\libmkrtos_sdk.a(getenv.o)
 .bss           0x00000000        0x0 D:\Project\MyProject1\mkrtos_real\mkrtos_sdk\Debug\libmkrtos_sdk.a(getenv.o)
 .text          0x00000000        0x0 D:\Project\MyProject1\mkrtos_real\mkrtos_sdk\Debug\libmkrtos_sdk.a(htonl.o)
 .data          0x00000000        0x0 D:\Project\MyProject1\mkrtos_real\mkrtos_sdk\Debug\libmkrtos_sdk.a(htonl.o)
 .bss           0x00000000        0x0 D:\Project\MyProject1\mkrtos_real\mkrtos_sdk\Debug\libmkrtos_sdk.a(htonl.o)
 .text          0x00000000        0x0 D:\Project\MyProject1\mkrtos_real\mkrtos_sdk\Debug\libmkrtos_sdk.a(isatty.o)
 .data          0x00000000        0x0 D:\Project\MyProject1\mkrtos_real\mkrtos_sdk\Debug\libmkrtos_sdk.a(isatty.o)
 .bss           0x00000000        0x0 D:\Project\MyProject1\mkrtos_real\mkrtos_sdk\Debug\libmkrtos_sdk.a(isatty.o)
 .text          0x00000000        0x0 D:\Project\MyProject1\mkrtos_real\mkrtos_sdk\Debug\libmkrtos_sdk.a(longjmp.o)
 .data          0x00000000        0x0 D:\Project\MyProject1\mkrtos_real\mkrtos_sdk\Debug\libmkrtos_sdk.a(longjmp.o)
 .bss           0x00000000        0x0 D:\Project\MyProject1\mkrtos_real\mkrtos_sdk\Debug\libmkrtos_sdk.a(longjmp.o)
 .text          0x00000000        0x0 D:\Project\MyProject1\mkrtos_real\mkrtos_sdk\Debug\libmkrtos_sdk.a(memcmp.o)
 .data          0x00000000        0x0 D:\Project\MyProject1\mkrtos_real\mkrtos_sdk\Debug\libmkrtos_sdk.a(memcmp.o)
 .bss           0x00000000        0x0 D:\Project\MyProject1\mkrtos_real\mkrtos_sdk\Debug\libmkrtos_sdk.a(memcmp.o)
 .text          0x00000000        0x0 D:\Project\MyProject1\mkrtos_real\mkrtos_sdk\Debug\libmkrtos_sdk.a(memcpy.o)
 .data          0x00000000        0x0 D:\Project\MyProject1\mkrtos_real\mkrtos_sdk\Debug\libmkrtos_sdk.a(memcpy.o)
 .bss           0x00000000        0x0 D:\Project\MyProject1\mkrtos_real\mkrtos_sdk\Debug\libmkrtos_sdk.a(memcpy.o)
 .text          0x00000000        0x0 D:\Project\MyProject1\mkrtos_real\mkrtos_sdk\Debug\libmkrtos_sdk.a(memmove.o)
 .data          0x00000000        0x0 D:\Project\MyProject1\mkrtos_real\mkrtos_sdk\Debug\libmkrtos_sdk.a(memmove.o)
 .bss           0x00000000        0x0 D:\Project\MyProject1\mkrtos_real\mkrtos_sdk\Debug\libmkrtos_sdk.a(memmove.o)
 .text          0x00000000        0x0 D:\Project\MyProject1\mkrtos_real\mkrtos_sdk\Debug\libmkrtos_sdk.a(memset.o)
 .data          0x00000000        0x0 D:\Project\MyProject1\mkrtos_real\mkrtos_sdk\Debug\libmkrtos_sdk.a(memset.o)
 .bss           0x00000000        0x0 D:\Project\MyProject1\mkrtos_real\mkrtos_sdk\Debug\libmkrtos_sdk.a(memset.o)
 .text          0x00000000        0x0 D:\Project\MyProject1\mkrtos_real\mkrtos_sdk\Debug\libmkrtos_sdk.a(qsort.o)
 .data          0x00000000        0x0 D:\Project\MyProject1\mkrtos_real\mkrtos_sdk\Debug\libmkrtos_sdk.a(qsort.o)
 .bss           0x00000000        0x0 D:\Project\MyProject1\mkrtos_real\mkrtos_sdk\Debug\libmkrtos_sdk.a(qsort.o)
 .text          0x00000000        0x0 D:\Project\MyProject1\mkrtos_real\mkrtos_sdk\Debug\libmkrtos_sdk.a(rand.o)
 .data          0x00000000        0x0 D:\Project\MyProject1\mkrtos_real\mkrtos_sdk\Debug\libmkrtos_sdk.a(rand.o)
 .bss           0x00000000        0x0 D:\Project\MyProject1\mkrtos_real\mkrtos_sdk\Debug\libmkrtos_sdk.a(rand.o)
 .text.srand    0x00000000       0x14 D:\Project\MyProject1\mkrtos_real\mkrtos_sdk\Debug\libmkrtos_sdk.a(rand.o)
 .text          0x00000000        0x0 D:\Project\MyProject1\mkrtos_real\mkrtos_sdk\Debug\libmkrtos_sdk.a(rand_r.o)
 .data          0x00000000        0x0 D:\Project\MyProject1\mkrtos_real\mkrtos_sdk\Debug\libmkrtos_sdk.a(rand_r.o)
 .bss           0x00000000        0x0 D:\Project\MyProject1\mkrtos_real\mkrtos_sdk\Debug\libmkrtos_sdk.a(rand_r.o)
 .text          0x00000000        0x0 D:\Project\MyProject1\mkrtos_real\mkrtos_sdk\Debug\libmkrtos_sdk.a(remove.o)
 .data          0x00000000        0x0 D:\Project\MyProject1\mkrtos_real\mkrtos_sdk\Debug\libmkrtos_sdk.a(remove.o)
 .bss           0x00000000        0x0 D:\Project\MyProject1\mkrtos_real\mkrtos_sdk\Debug\libmkrtos_sdk.a(remove.o)
 .text          0x00000000        0x0 D:\Project\MyProject1\mkrtos_real\mkrtos_sdk\Debug\libmkrtos_sdk.a(sigprocmask.o)
 .data          0x00000000        0x0 D:\Project\MyProject1\mkrtos_real\mkrtos_sdk\Debug\libmkrtos_sdk.a(sigprocmask.o)
 .bss           0x00000000        0x0 D:\Project\MyProject1\mkrtos_real\mkrtos_sdk\Debug\libmkrtos_sdk.a(sigprocmask.o)
 .text          0x00000000        0x0 D:\Project\MyProject1\mkrtos_real\mkrtos_sdk\Debug\libmkrtos_sdk.a(snprintf.o)
 .data          0x00000000        0x0 D:\Project\MyProject1\mkrtos_real\mkrtos_sdk\Debug\libmkrtos_sdk.a(snprintf.o)
 .bss           0x00000000        0x0 D:\Project\MyProject1\mkrtos_real\mkrtos_sdk\Debug\libmkrtos_sdk.a(snprintf.o)
 .text          0x00000000        0x0 D:\Project\MyProject1\mkrtos_real\mkrtos_sdk\Debug\libmkrtos_sdk.a(sprintf.o)
 .data          0x00000000        0x0 D:\Project\MyProject1\mkrtos_real\mkrtos_sdk\Debug\libmkrtos_sdk.a(sprintf.o)
 .bss           0x00000000        0x0 D:\Project\MyProject1\mkrtos_real\mkrtos_sdk\Debug\libmkrtos_sdk.a(sprintf.o)
 .text          0x00000000        0x0 D:\Project\MyProject1\mkrtos_real\mkrtos_sdk\Debug\libmkrtos_sdk.a(sscanf.o)
 .data          0x00000000        0x0 D:\Project\MyProject1\mkrtos_real\mkrtos_sdk\Debug\libmkrtos_sdk.a(sscanf.o)
 .bss           0x00000000        0x0 D:\Project\MyProject1\mkrtos_real\mkrtos_sdk\Debug\libmkrtos_sdk.a(sscanf.o)
 .text          0x00000000        0x0 D:\Project\MyProject1\mkrtos_real\mkrtos_sdk\Debug\libmkrtos_sdk.a(strchr.o)
 .data          0x00000000        0x0 D:\Project\MyProject1\mkrtos_real\mkrtos_sdk\Debug\libmkrtos_sdk.a(strchr.o)
 .bss           0x00000000        0x0 D:\Project\MyProject1\mkrtos_real\mkrtos_sdk\Debug\libmkrtos_sdk.a(strchr.o)
 .text          0x00000000        0x0 D:\Project\MyProject1\mkrtos_real\mkrtos_sdk\Debug\libmkrtos_sdk.a(strcmp.o)
 .data          0x00000000        0x0 D:\Project\MyProject1\mkrtos_real\mkrtos_sdk\Debug\libmkrtos_sdk.a(strcmp.o)
 .bss           0x00000000        0x0 D:\Project\MyProject1\mkrtos_real\mkrtos_sdk\Debug\libmkrtos_sdk.a(strcmp.o)
 .text          0x00000000        0x0 D:\Project\MyProject1\mkrtos_real\mkrtos_sdk\Debug\libmkrtos_sdk.a(strcpy.o)
 .data          0x00000000        0x0 D:\Project\MyProject1\mkrtos_real\mkrtos_sdk\Debug\libmkrtos_sdk.a(strcpy.o)
 .bss           0x00000000        0x0 D:\Project\MyProject1\mkrtos_real\mkrtos_sdk\Debug\libmkrtos_sdk.a(strcpy.o)
 .text          0x00000000        0x0 D:\Project\MyProject1\mkrtos_real\mkrtos_sdk\Debug\libmkrtos_sdk.a(strerror.o)
 .data          0x00000000        0x0 D:\Project\MyProject1\mkrtos_real\mkrtos_sdk\Debug\libmkrtos_sdk.a(strerror.o)
 .bss           0x00000000        0x0 D:\Project\MyProject1\mkrtos_real\mkrtos_sdk\Debug\libmkrtos_sdk.a(strerror.o)
 .text          0x00000000        0x0 D:\Project\MyProject1\mkrtos_real\mkrtos_sdk\Debug\libmkrtos_sdk.a(strlen.o)
 .data          0x00000000        0x0 D:\Project\MyProject1\mkrtos_real\mkrtos_sdk\Debug\libmkrtos_sdk.a(strlen.o)
 .bss           0x00000000        0x0 D:\Project\MyProject1\mkrtos_real\mkrtos_sdk\Debug\libmkrtos_sdk.a(strlen.o)
 .text          0x00000000        0x0 D:\Project\MyProject1\mkrtos_real\mkrtos_sdk\Debug\libmkrtos_sdk.a(strncmp.o)
 .data          0x00000000        0x0 D:\Project\MyProject1\mkrtos_real\mkrtos_sdk\Debug\libmkrtos_sdk.a(strncmp.o)
 .bss           0x00000000        0x0 D:\Project\MyProject1\mkrtos_real\mkrtos_sdk\Debug\libmkrtos_sdk.a(strncmp.o)
 .text          0x00000000        0x0 D:\Project\MyProject1\mkrtos_real\mkrtos_sdk\Debug\libmkrtos_sdk.a(strncpy.o)
 .data          0x00000000        0x0 D:\Project\MyProject1\mkrtos_real\mkrtos_sdk\Debug\libmkrtos_sdk.a(strncpy.o)
 .bss           0x00000000        0x0 D:\Project\MyProject1\mkrtos_real\mkrtos_sdk\Debug\libmkrtos_sdk.a(strncpy.o)
 .text          0x00000000        0x0 D:\Project\MyProject1\mkrtos_real\mkrtos_sdk\Debug\libmkrtos_sdk.a(strrchr.o)
 .data          0x00000000        0x0 D:\Project\MyProject1\mkrtos_real\mkrtos_sdk\Debug\libmkrtos_sdk.a(strrchr.o)
 .bss           0x00000000        0x0 D:\Project\MyProject1\mkrtos_real\mkrtos_sdk\Debug\libmkrtos_sdk.a(strrchr.o)
 .text          0x00000000        0x0 D:\Project\MyProject1\mkrtos_real\mkrtos_sdk\Debug\libmkrtos_sdk.a(strstr.o)
 .data          0x00000000        0x0 D:\Project\MyProject1\mkrtos_real\mkrtos_sdk\Debug\libmkrtos_sdk.a(strstr.o)
 .bss           0x00000000        0x0 D:\Project\MyProject1\mkrtos_real\mkrtos_sdk\Debug\libmkrtos_sdk.a(strstr.o)
 .text          0x00000000        0x0 D:\Project\MyProject1\mkrtos_real\mkrtos_sdk\Debug\libmkrtos_sdk.a(strtol.o)
 .data          0x00000000        0x0 D:\Project\MyProject1\mkrtos_real\mkrtos_sdk\Debug\libmkrtos_sdk.a(strtol.o)
 .bss           0x00000000        0x0 D:\Project\MyProject1\mkrtos_real\mkrtos_sdk\Debug\libmkrtos_sdk.a(strtol.o)
 .text          0x00000000        0x0 D:\Project\MyProject1\mkrtos_real\mkrtos_sdk\Debug\libmkrtos_sdk.a(strtoll.o)
 .data          0x00000000        0x0 D:\Project\MyProject1\mkrtos_real\mkrtos_sdk\Debug\libmkrtos_sdk.a(strtoll.o)
 .bss           0x00000000        0x0 D:\Project\MyProject1\mkrtos_real\mkrtos_sdk\Debug\libmkrtos_sdk.a(strtoll.o)
 .text          0x00000000        0x0 D:\Project\MyProject1\mkrtos_real\mkrtos_sdk\Debug\libmkrtos_sdk.a(strtoul.o)
 .data          0x00000000        0x0 D:\Project\MyProject1\mkrtos_real\mkrtos_sdk\Debug\libmkrtos_sdk.a(strtoul.o)
 .bss           0x00000000        0x0 D:\Project\MyProject1\mkrtos_real\mkrtos_sdk\Debug\libmkrtos_sdk.a(strtoul.o)
 .text          0x00000000        0x0 D:\Project\MyProject1\mkrtos_real\mkrtos_sdk\Debug\libmkrtos_sdk.a(strtoull.o)
 .data          0x00000000        0x0 D:\Project\MyProject1\mkrtos_real\mkrtos_sdk\Debug\libmkrtos_sdk.a(strtoull.o)
 .bss           0x00000000        0x0 D:\Project\MyProject1\mkrtos_real\mkrtos_sdk\Debug\libmkrtos_sdk.a(strtoull.o)
 .text          0x00000000        0x0 D:\Project\MyProject1\mkrtos_real\mkrtos_sdk\Debug\libmkrtos_sdk.a(vsnprintf.o)
 .data          0x00000000        0x0 D:\Project\MyProject1\mkrtos_real\mkrtos_sdk\Debug\libmkrtos_sdk.a(vsnprintf.o)
 .bss           0x00000000        0x0 D:\Project\MyProject1\mkrtos_real\mkrtos_sdk\Debug\libmkrtos_sdk.a(vsnprintf.o)
 .text          0x00000000        0x0 D:\Project\MyProject1\mkrtos_real\mkrtos_sdk\Debug\libmkrtos_sdk.a(vsprintf.o)
 .data          0x00000000        0x0 D:\Project\MyProject1\mkrtos_real\mkrtos_sdk\Debug\libmkrtos_sdk.a(vsprintf.o)
 .bss           0x00000000        0x0 D:\Project\MyProject1\mkrtos_real\mkrtos_sdk\Debug\libmkrtos_sdk.a(vsprintf.o)
 .gnu.warning.vsprintf
                0x00000000        0x0 D:\Project\MyProject1\mkrtos_real\mkrtos_sdk\Debug\libmkrtos_sdk.a(vsprintf.o)
 .text          0x00000000        0x0 D:\Project\MyProject1\mkrtos_real\mkrtos_sdk\Debug\libmkrtos_sdk.a(vsscanf.o)
 .data          0x00000000        0x0 D:\Project\MyProject1\mkrtos_real\mkrtos_sdk\Debug\libmkrtos_sdk.a(vsscanf.o)
 .bss           0x00000000        0x0 D:\Project\MyProject1\mkrtos_real\mkrtos_sdk\Debug\libmkrtos_sdk.a(vsscanf.o)
 .gnu.warning.sendfile
                0x00000000        0x0 D:\Project\MyProject1\mkrtos_real\mkrtos_sdk\Debug\libmkrtos_sdk.a(dyn_syscalls.o)
 .gnu.warning.sendfile64
                0x00000000        0x0 D:\Project\MyProject1\mkrtos_real\mkrtos_sdk\Debug\libmkrtos_sdk.a(dyn_syscalls.o)
 .data          0x00000000        0x0 D:\Project\MyProject1\mkrtos_real\mkrtos_sdk\Debug\libmkrtos_sdk.a(start.o)
 .bss           0x00000000        0x0 D:\Project\MyProject1\mkrtos_real\mkrtos_sdk\Debug\libmkrtos_sdk.a(start.o)
 .text          0x00000000        0x0 D:\Project\MyProject1\mkrtos_real\mkrtos_sdk\Debug\libmkrtos_sdk.a(stackgap-g.o)
 .data          0x00000000        0x0 D:\Project\MyProject1\mkrtos_real\mkrtos_sdk\Debug\libmkrtos_sdk.a(stackgap-g.o)
 .bss           0x00000000        0x0 D:\Project\MyProject1\mkrtos_real\mkrtos_sdk\Debug\libmkrtos_sdk.a(stackgap-g.o)
 .text.getauxval
                0x00000000       0x14 D:\Project\MyProject1\mkrtos_real\mkrtos_sdk\Debug\libmkrtos_sdk.a(stackgap-g.o)
 .text          0x00000000        0x0 D:\Project\MyProject1\mkrtos_real\mkrtos_sdk\Debug\libmkrtos_sdk.a(start.o)
 .data          0x00000000        0x0 D:\Project\MyProject1\mkrtos_real\mkrtos_sdk\Debug\libmkrtos_sdk.a(start.o)
 .bss           0x00000000        0x0 D:\Project\MyProject1\mkrtos_real\mkrtos_sdk\Debug\libmkrtos_sdk.a(start.o)
 .text          0x00000000        0x0 D:\Project\MyProject1\mkrtos_real\mkrtos_sdk\Debug\libmkrtos_sdk.a(gmtime_r.o)
 .data          0x00000000        0x0 D:\Project\MyProject1\mkrtos_real\mkrtos_sdk\Debug\libmkrtos_sdk.a(gmtime_r.o)
 .bss           0x00000000        0x0 D:\Project\MyProject1\mkrtos_real\mkrtos_sdk\Debug\libmkrtos_sdk.a(gmtime_r.o)
 .text          0x00000000        0x0 D:\Project\MyProject1\mkrtos_real\mkrtos_sdk\Debug\libmkrtos_sdk.a(isleap.o)
 .data          0x00000000        0x0 D:\Project\MyProject1\mkrtos_real\mkrtos_sdk\Debug\libmkrtos_sdk.a(isleap.o)
 .bss           0x00000000        0x0 D:\Project\MyProject1\mkrtos_real\mkrtos_sdk\Debug\libmkrtos_sdk.a(isleap.o)
 .text          0x00000000        0x0 D:\Project\MyProject1\mkrtos_real\mkrtos_sdk\Debug\libmkrtos_sdk.a(time_table_spd.o)
 .data          0x00000000        0x0 D:\Project\MyProject1\mkrtos_real\mkrtos_sdk\Debug\libmkrtos_sdk.a(time_table_spd.o)
 .bss           0x00000000        0x0 D:\Project\MyProject1\mkrtos_real\mkrtos_sdk\Debug\libmkrtos_sdk.a(time_table_spd.o)
 .text          0x00000000        0x0 D:\Project\MyProject1\mkrtos_real\mkrtos_sdk\Debug\libmkrtos_sdk.a(timezone.o)
 .data          0x00000000        0x0 D:\Project\MyProject1\mkrtos_real\mkrtos_sdk\Debug\libmkrtos_sdk.a(timezone.o)
 .bss           0x00000000        0x0 D:\Project\MyProject1\mkrtos_real\mkrtos_sdk\Debug\libmkrtos_sdk.a(timezone.o)
 .text          0x00000000        0x0 D:\Project\MyProject1\mkrtos_real\mkrtos_sdk\Debug\libmkrtos_sdk.a(fdglue.o)
 .data          0x00000000        0x0 D:\Project\MyProject1\mkrtos_real\mkrtos_sdk\Debug\libmkrtos_sdk.a(fdglue.o)
 .bss           0x00000000        0x0 D:\Project\MyProject1\mkrtos_real\mkrtos_sdk\Debug\libmkrtos_sdk.a(fdglue.o)
 .text          0x00000000        0x0 D:\Project\MyProject1\mkrtos_real\mkrtos_sdk\Debug\libmkrtos_sdk.a(fdglue2.o)
 .data          0x00000000        0x0 D:\Project\MyProject1\mkrtos_real\mkrtos_sdk\Debug\libmkrtos_sdk.a(fdglue2.o)
 .bss           0x00000000        0x0 D:\Project\MyProject1\mkrtos_real\mkrtos_sdk\Debug\libmkrtos_sdk.a(fdglue2.o)
 .text          0x00000000        0x0 D:\Project\MyProject1\mkrtos_real\mkrtos_sdk\Debug\libmkrtos_sdk.a(fgetc_unlocked.o)
 .data          0x00000000        0x0 D:\Project\MyProject1\mkrtos_real\mkrtos_sdk\Debug\libmkrtos_sdk.a(fgetc_unlocked.o)
 .bss           0x00000000        0x0 D:\Project\MyProject1\mkrtos_real\mkrtos_sdk\Debug\libmkrtos_sdk.a(fgetc_unlocked.o)
 .text          0x00000000        0x0 D:\Project\MyProject1\mkrtos_real\mkrtos_sdk\Debug\libmkrtos_sdk.a(__ltostr.o)
 .data          0x00000000        0x0 D:\Project\MyProject1\mkrtos_real\mkrtos_sdk\Debug\libmkrtos_sdk.a(__ltostr.o)
 .bss           0x00000000        0x0 D:\Project\MyProject1\mkrtos_real\mkrtos_sdk\Debug\libmkrtos_sdk.a(__ltostr.o)
 .text          0x00000000        0x0 D:\Project\MyProject1\mkrtos_real\mkrtos_sdk\Debug\libmkrtos_sdk.a(__v_scanf.o)
 .data          0x00000000        0x0 D:\Project\MyProject1\mkrtos_real\mkrtos_sdk\Debug\libmkrtos_sdk.a(__v_scanf.o)
 .bss           0x00000000        0x0 D:\Project\MyProject1\mkrtos_real\mkrtos_sdk\Debug\libmkrtos_sdk.a(__v_scanf.o)
 .gnu.warning.__v_scanf
                0x00000000        0x0 D:\Project\MyProject1\mkrtos_real\mkrtos_sdk\Debug\libmkrtos_sdk.a(__v_scanf.o)
 .text          0x00000000        0x0 D:\Project\MyProject1\mkrtos_real\mkrtos_sdk\Debug\libmkrtos_sdk.a(errlistu.o)
 .data          0x00000000        0x0 D:\Project\MyProject1\mkrtos_real\mkrtos_sdk\Debug\libmkrtos_sdk.a(errlistu.o)
 .bss           0x00000000        0x0 D:\Project\MyProject1\mkrtos_real\mkrtos_sdk\Debug\libmkrtos_sdk.a(errlistu.o)
 .text          0x00000000        0x0 D:\Project\MyProject1\mkrtos_real\mkrtos_sdk\Debug\libmkrtos_sdk.a(isalnum.o)
 .data          0x00000000        0x0 D:\Project\MyProject1\mkrtos_real\mkrtos_sdk\Debug\libmkrtos_sdk.a(isalnum.o)
 .bss           0x00000000        0x0 D:\Project\MyProject1\mkrtos_real\mkrtos_sdk\Debug\libmkrtos_sdk.a(isalnum.o)
 .text          0x00000000        0x0 D:\Project\MyProject1\mkrtos_real\mkrtos_sdk\Debug\libmkrtos_sdk.a(isspace.o)
 .data          0x00000000        0x0 D:\Project\MyProject1\mkrtos_real\mkrtos_sdk\Debug\libmkrtos_sdk.a(isspace.o)
 .bss           0x00000000        0x0 D:\Project\MyProject1\mkrtos_real\mkrtos_sdk\Debug\libmkrtos_sdk.a(isspace.o)
 .text          0x00000000        0x0 D:\Project\MyProject1\mkrtos_real\mkrtos_sdk\Debug\libmkrtos_sdk.a(isxdigit.o)
 .data          0x00000000        0x0 D:\Project\MyProject1\mkrtos_real\mkrtos_sdk\Debug\libmkrtos_sdk.a(isxdigit.o)
 .bss           0x00000000        0x0 D:\Project\MyProject1\mkrtos_real\mkrtos_sdk\Debug\libmkrtos_sdk.a(isxdigit.o)
 .text          0x00000000        0x0 D:\Project\MyProject1\mkrtos_real\mkrtos_sdk\Debug\libmkrtos_sdk.a(memccpy.o)
 .data          0x00000000        0x0 D:\Project\MyProject1\mkrtos_real\mkrtos_sdk\Debug\libmkrtos_sdk.a(memccpy.o)
 .bss           0x00000000        0x0 D:\Project\MyProject1\mkrtos_real\mkrtos_sdk\Debug\libmkrtos_sdk.a(memccpy.o)
 .text          0x00000000        0x0 D:\Project\MyProject1\mkrtos_real\mkrtos_sdk\Debug\libmkrtos_sdk.a(sigjmp.o)
 .data          0x00000000        0x0 D:\Project\MyProject1\mkrtos_real\mkrtos_sdk\Debug\libmkrtos_sdk.a(sigjmp.o)
 .bss           0x00000000        0x0 D:\Project\MyProject1\mkrtos_real\mkrtos_sdk\Debug\libmkrtos_sdk.a(sigjmp.o)
 .data          0x00000000        0x0 D:\Project\MyProject1\mkrtos_real\mkrtos_sdk\Debug\libmkrtos_sdk.a(arm_set_tls.o)
 .bss           0x00000000        0x0 D:\Project\MyProject1\mkrtos_real\mkrtos_sdk\Debug\libmkrtos_sdk.a(arm_set_tls.o)
 .text          0x00000000        0x0 D:\Project\MyProject1\mkrtos_real\mkrtos_sdk\Debug\libmkrtos_sdk.a(__main.o)
 .data          0x00000000        0x0 D:\Project\MyProject1\mkrtos_real\mkrtos_sdk\Debug\libmkrtos_sdk.a(__main.o)
 .bss           0x00000000        0x0 D:\Project\MyProject1\mkrtos_real\mkrtos_sdk\Debug\libmkrtos_sdk.a(__main.o)
 .text          0x00000000        0x0 D:\Project\MyProject1\mkrtos_real\mkrtos_sdk\Debug\libmkrtos_sdk.a(reloc.o)
 .data          0x00000000        0x0 D:\Project\MyProject1\mkrtos_real\mkrtos_sdk\Debug\libmkrtos_sdk.a(reloc.o)
 .bss           0x00000000        0x0 D:\Project\MyProject1\mkrtos_real\mkrtos_sdk\Debug\libmkrtos_sdk.a(reloc.o)
 .text          0x00000000        0x0 D:\Project\MyProject1\mkrtos_real\mkrtos_sdk\Debug\libmkrtos_sdk.a(feof.o)
 .data          0x00000000        0x0 D:\Project\MyProject1\mkrtos_real\mkrtos_sdk\Debug\libmkrtos_sdk.a(feof.o)
 .bss           0x00000000        0x0 D:\Project\MyProject1\mkrtos_real\mkrtos_sdk\Debug\libmkrtos_sdk.a(feof.o)
 .data          0x00000000        0x0 D:\Program Files (x86)\GNU Tools ARM Embedded\4.9 2014q4\lib\gcc\arm-none-eabi\4.9.3\armv7-m\libgcc.a(_lshrdi3.o)
 .bss           0x00000000        0x0 D:\Program Files (x86)\GNU Tools ARM Embedded\4.9 2014q4\lib\gcc\arm-none-eabi\4.9.3\armv7-m\libgcc.a(_lshrdi3.o)
 .data          0x00000000        0x0 D:\Program Files (x86)\GNU Tools ARM Embedded\4.9 2014q4\lib\gcc\arm-none-eabi\4.9.3\armv7-m\libgcc.a(_ashldi3.o)
 .bss           0x00000000        0x0 D:\Program Files (x86)\GNU Tools ARM Embedded\4.9 2014q4\lib\gcc\arm-none-eabi\4.9.3\armv7-m\libgcc.a(_ashldi3.o)
 .data          0x00000000        0x0 D:\Program Files (x86)\GNU Tools ARM Embedded\4.9 2014q4\lib\gcc\arm-none-eabi\4.9.3\armv7-m\libgcc.a(_arm_addsubdf3.o)
 .bss           0x00000000        0x0 D:\Program Files (x86)\GNU Tools ARM Embedded\4.9 2014q4\lib\gcc\arm-none-eabi\4.9.3\armv7-m\libgcc.a(_arm_addsubdf3.o)
 .data          0x00000000        0x0 D:\Program Files (x86)\GNU Tools ARM Embedded\4.9 2014q4\lib\gcc\arm-none-eabi\4.9.3\armv7-m\libgcc.a(_arm_muldivdf3.o)
 .bss           0x00000000        0x0 D:\Program Files (x86)\GNU Tools ARM Embedded\4.9 2014q4\lib\gcc\arm-none-eabi\4.9.3\armv7-m\libgcc.a(_arm_muldivdf3.o)
 .data          0x00000000        0x0 D:\Program Files (x86)\GNU Tools ARM Embedded\4.9 2014q4\lib\gcc\arm-none-eabi\4.9.3\armv7-m\libgcc.a(_arm_cmpdf2.o)
 .bss           0x00000000        0x0 D:\Program Files (x86)\GNU Tools ARM Embedded\4.9 2014q4\lib\gcc\arm-none-eabi\4.9.3\armv7-m\libgcc.a(_arm_cmpdf2.o)
 .data          0x00000000        0x0 D:\Program Files (x86)\GNU Tools ARM Embedded\4.9 2014q4\lib\gcc\arm-none-eabi\4.9.3\armv7-m\libgcc.a(_arm_truncdfsf2.o)
 .bss           0x00000000        0x0 D:\Program Files (x86)\GNU Tools ARM Embedded\4.9 2014q4\lib\gcc\arm-none-eabi\4.9.3\armv7-m\libgcc.a(_arm_truncdfsf2.o)
 .data          0x00000000        0x0 D:\Program Files (x86)\GNU Tools ARM Embedded\4.9 2014q4\lib\gcc\arm-none-eabi\4.9.3\armv7-m\libgcc.a(_arm_cmpsf2.o)
 .bss           0x00000000        0x0 D:\Program Files (x86)\GNU Tools ARM Embedded\4.9 2014q4\lib\gcc\arm-none-eabi\4.9.3\armv7-m\libgcc.a(_arm_cmpsf2.o)
 .data          0x00000000        0x0 D:\Program Files (x86)\GNU Tools ARM Embedded\4.9 2014q4\lib\gcc\arm-none-eabi\4.9.3\armv7-m\libgcc.a(_aeabi_uldivmod.o)
 .bss           0x00000000        0x0 D:\Program Files (x86)\GNU Tools ARM Embedded\4.9 2014q4\lib\gcc\arm-none-eabi\4.9.3\armv7-m\libgcc.a(_aeabi_uldivmod.o)
 .data          0x00000000        0x0 D:\Program Files (x86)\GNU Tools ARM Embedded\4.9 2014q4\lib\gcc\arm-none-eabi\4.9.3\armv7-m\libgcc.a(_fixunsdfdi.o)
 .bss           0x00000000        0x0 D:\Program Files (x86)\GNU Tools ARM Embedded\4.9 2014q4\lib\gcc\arm-none-eabi\4.9.3\armv7-m\libgcc.a(_fixunsdfdi.o)
 .data          0x00000000        0x0 D:\Program Files (x86)\GNU Tools ARM Embedded\4.9 2014q4\lib\gcc\arm-none-eabi\4.9.3\armv7-m\libgcc.a(bpabi.o)
 .bss           0x00000000        0x0 D:\Program Files (x86)\GNU Tools ARM Embedded\4.9 2014q4\lib\gcc\arm-none-eabi\4.9.3\armv7-m\libgcc.a(bpabi.o)
 .data          0x00000000        0x0 D:\Program Files (x86)\GNU Tools ARM Embedded\4.9 2014q4\lib\gcc\arm-none-eabi\4.9.3\armv7-m\libgcc.a(_dvmd_tls.o)
 .bss           0x00000000        0x0 D:\Program Files (x86)\GNU Tools ARM Embedded\4.9 2014q4\lib\gcc\arm-none-eabi\4.9.3\armv7-m\libgcc.a(_dvmd_tls.o)
 .data          0x00000000        0x0 D:\Program Files (x86)\GNU Tools ARM Embedded\4.9 2014q4\lib\gcc\arm-none-eabi\4.9.3\armv7-m\libgcc.a(_arm_fixunsdfsi.o)
 .bss           0x00000000        0x0 D:\Program Files (x86)\GNU Tools ARM Embedded\4.9 2014q4\lib\gcc\arm-none-eabi\4.9.3\armv7-m\libgcc.a(_arm_fixunsdfsi.o)
 .data          0x00000000        0x0 D:\Program Files (x86)\GNU Tools ARM Embedded\4.9 2014q4\lib\gcc\arm-none-eabi\4.9.3\armv7-m\libgcc.a(_divdi3.o)
 .bss           0x00000000        0x0 D:\Program Files (x86)\GNU Tools ARM Embedded\4.9 2014q4\lib\gcc\arm-none-eabi\4.9.3\armv7-m\libgcc.a(_divdi3.o)
 .ARM.extab     0x00000000        0x0 D:\Program Files (x86)\GNU Tools ARM Embedded\4.9 2014q4\lib\gcc\arm-none-eabi\4.9.3\armv7-m\libgcc.a(_divdi3.o)
 .data          0x00000000        0x0 D:\Program Files (x86)\GNU Tools ARM Embedded\4.9 2014q4\lib\gcc\arm-none-eabi\4.9.3\armv7-m\libgcc.a(_udivdi3.o)
 .bss           0x00000000        0x0 D:\Program Files (x86)\GNU Tools ARM Embedded\4.9 2014q4\lib\gcc\arm-none-eabi\4.9.3\armv7-m\libgcc.a(_udivdi3.o)
 .ARM.extab     0x00000000        0x0 D:\Program Files (x86)\GNU Tools ARM Embedded\4.9 2014q4\lib\gcc\arm-none-eabi\4.9.3\armv7-m\libgcc.a(_udivdi3.o)

Memory Configuration

Name             Origin             Length             Attributes
*default*        0x00000000         0xffffffff

Linker script and memory map

LOAD ./src/tcc/tcc.o
LOAD ./src/tcc/tcctools.o
LOAD D:\Project\MyProject1\mkrtos_real\mkrtos_sdk\Debug\libmkrtos_sdk.a
LOAD D:\Program Files (x86)\GNU Tools ARM Embedded\4.9 2014q4\lib\gcc\arm-none-eabi\4.9.3\armv7-m\libgcc.a
                0x00000100                _system_stack_size = 0x100

.text           0x00000000    0x2d94c
                0x00000000                . = ALIGN (0x4)
                0x00000000                __text_start__ = .
 *(.first)
 .first         0x00000000       0xf4 D:\Project\MyProject1\mkrtos_real\mkrtos_sdk\Debug\libmkrtos_sdk.a(start.o)
                0x00000000                _start_
 *(.text)
 .text          0x000000f4     0x1238 D:\Project\MyProject1\mkrtos_real\mkrtos_sdk\Debug\libmkrtos_sdk.a(dyn_syscalls.o)
                0x000000f4                __unified_syscall4
                0x000000f8                __unified_syscall
                0x00000118                ftrylockfile
                0x00000118                __you_tried_to_link_a_dietlibc_object_against_glibc
                0x00000118                __nop
                0x00000118                funlockfile
                0x00000118                flockfile
                0x00000118                __thread_doexit
                0x0000011c                __libc_waitpid
                0x0000011c                waitpid
                0x00000124                __libc_select
                0x00000124                select
                0x00000140                __libc_pread64
                0x00000140                pread64
                0x00000150                __libc_pwrite64
                0x00000150                pwrite64
                0x00000160                __reboot
                0x00000170                access
                0x00000180                adjtimex
                0x00000190                __diet_brk
                0x000001a0                chdir
                0x000001b0                chmod
                0x000001c0                chown
                0x000001d0                chroot
                0x000001e0                __libc_close
                0x000001e0                close
                0x000001f0                dup
                0x00000200                dup2
                0x00000210                execve
                0x00000220                fchdir
                0x00000230                fchmod
                0x00000240                fchown
                0x00000250                fcntl
                0x00000250                __libc_fcntl
                0x00000260                flock
                0x00000270                fork
                0x00000270                __libc_fork
                0x00000280                fstat
                0x00000290                __dietlibc_fstat64
                0x000002a0                fstatfs
                0x000002b0                __libc_fsync
                0x000002b0                fsync
                0x000002c0                ftruncate
                0x000002d0                __syscall_getcwd
                0x000002e0                getdents
                0x000002f0                getdents64
                0x00000300                getegid
                0x00000310                geteuid
                0x00000320                getgid
                0x00000330                getgroups
                0x00000340                getitimer
                0x00000350                getpgid
                0x00000360                getpid
                0x00000370                getppid
                0x00000380                __syscall_getpriority
                0x00000390                getresgid
                0x000003a0                getresuid
                0x000003b0                getrlimit
                0x000003c0                getrusage
                0x000003d0                getsid
                0x000003e0                gettimeofday
                0x000003f0                settimeofday
                0x00000400                getuid
                0x00000410                ioctl
                0x00000420                kill
                0x00000430                lchown
                0x00000440                link
                0x00000450                llseek
                0x00000450                _llseek
                0x0000046c                __libc_lseek
                0x0000046c                lseek
                0x0000047c                lstat
                0x0000048c                __dietlibc_lstat64
                0x0000049c                mkdir
                0x000004ac                mknod
                0x000004bc                mlock
                0x000004cc                mlockall
                0x000004dc                __mmap2
                0x000004f8                mount
                0x00000514                mprotect
                0x00000524                mremap
                0x00000534                munlockall
                0x00000544                munmap
                0x00000554                __old_sigaction
                0x00000554                __n_sigaction
                0x00000564                __old_sigpending
                0x00000564                __n_sigpending
                0x00000574                __old_sigprocmask
                0x00000574                __n_sigprocmask
                0x00000584                __n_sigsuspend
                0x00000584                __old_sigsuspend
                0x00000594                __libc_nanosleep
                0x00000594                nanosleep
                0x000005a4                __libc_open
                0x000005a4                open
                0x000005b4                pause
                0x000005b4                __libc_pause
                0x000005c4                personality
                0x000005d4                pipe
                0x000005e4                poll
                0x000005f4                init_module
                0x00000604                delete_module
                0x00000614                read
                0x00000614                __libc_read
                0x00000624                readlink
                0x00000634                readv
                0x00000644                rename
                0x00000654                rmdir
                0x00000664                __rt_sigaction
                0x00000674                __rt_sigpending
                0x00000684                __rt_sigprocmask
                0x00000694                __rt_sigqueueinfo
                0x000006a4                __rt_sigsuspend
                0x000006b4                __rt_sigtimedwait
                0x000006c4                __syscall_sched_getaffinity
                0x000006d4                sched_setaffinity
                0x000006e4                sched_get_priority_max
                0x000006f4                sched_get_priority_min
                0x00000704                sched_getparam
                0x00000714                sched_getscheduler
                0x00000724                sched_rr_get_interval
                0x00000734                sched_setparam
                0x00000744                sched_setscheduler
                0x00000754                sched_yield
                0x00000764                __libc_sendfile
                0x00000764                sendfile
                0x00000774                __dietlibc_sendfile64
                0x00000784                setdomainname
                0x00000794                setfsgid
                0x000007a4                setfsuid
                0x000007b4                setgid
                0x000007c4                setgroups
                0x000007d4                sethostname
                0x000007e4                setitimer
                0x000007f4                setpgid
                0x00000804                setpriority
                0x00000814                setregid
                0x00000824                setresgid
                0x00000834                setresuid
                0x00000844                setreuid
                0x00000854                setrlimit
                0x00000864                setsid
                0x00000874                setuid
                0x00000884                __sigaltstack
                0x00000884                sigaltstack
                0x00000894                stat
                0x000008a4                __dietlibc_stat64
                0x000008b4                statfs
                0x000008c4                swapoff
                0x000008d4                swapon
                0x000008e4                symlink
                0x000008f4                sync
                0x00000904                _sysctl
                0x00000914                sysinfo
                0x00000924                __syscall_syslog
                0x00000924                klogctl
                0x00000934                sysfs
                0x00000944                times
                0x00000954                truncate
                0x00000964                umask
                0x00000974                umount2
                0x00000984                uname
                0x00000994                unlink
                0x000009a4                vhangup
                0x000009b4                wait4
                0x000009c4                __libc_write
                0x000009c4                write
                0x000009d4                writev
                0x000009e4                __libc_msync
                0x000009e4                msync
                0x000009f4                capget
                0x00000a04                capset
                0x00000a14                __libc_chown32
                0x00000a14                chown32
                0x00000a24                fchown32
                0x00000a24                __libc_fchown32
                0x00000a34                getegid32
                0x00000a34                __libc_getegid32
                0x00000a44                __libc_geteuid32
                0x00000a44                geteuid32
                0x00000a54                getgid32
                0x00000a54                __libc_getgid32
                0x00000a64                __libc_getgroups32
                0x00000a64                getgroups32
                0x00000a74                getresgid32
                0x00000a74                __libc_getresgid32
                0x00000a84                getuid32
                0x00000a84                __libc_getuid32
                0x00000a94                __libc_lchown32
                0x00000a94                lchown32
                0x00000aa4                __libc_setfsgid32
                0x00000aa4                setfsgid32
                0x00000ab4                __libc_setfsuid32
                0x00000ab4                setfsuid32
                0x00000ac4                setgid32
                0x00000ac4                __libc_setgid32
                0x00000ad4                setregid32
                0x00000ad4                __libc_setregid32
                0x00000ae4                __libc_setresgid32
                0x00000ae4                setresgid32
                0x00000af4                setreuid32
                0x00000af4                __libc_setreuid32
                0x00000b04                setuid32
                0x00000b04                __libc_setuid32
                0x00000b14                __diet_ptrace
                0x00000b24                __dietlibc_ftruncate64
                0x00000b24                __dietlibc_ftruncate64_syscall
                0x00000b34                __dietlibc_truncate64
                0x00000b34                __dietlibc_truncate64_syscall
                0x00000b44                ustat
                0x00000b54                epoll_create
                0x00000b64                epoll_ctl
                0x00000b74                epoll_wait
                0x00000b84                __dietlibc_fcntl64
                0x00000b94                timer_create
                0x00000ba4                timer_settime
                0x00000bb4                timer_gettime
                0x00000bc4                timer_getoverrun
                0x00000bd4                timer_delete
                0x00000be4                clock_settime
                0x00000bf4                clock_gettime
                0x00000c04                clock_getres
                0x00000c14                clock_nanosleep
                0x00000c24                mq_setattr
                0x00000c34                mq_notify
                0x00000c44                mq_open
                0x00000c54                mq_timedreceive
                0x00000c70                mq_timedsend
                0x00000c80                mq_unlink
                0x00000c90                __dietlibc_statfs64
                0x00000ca0                __dietlibc_fstatfs64
                0x00000cb0                tkill
                0x00000cc0                tgkill
                0x00000cd0                set_tid_address
                0x00000ce0                set_mempolicy
                0x00000cfc                rt_sigreturn
                0x00000d0c                gettid
                0x00000d1c                remap_file_pages
                0x00000d2c                readahead
                0x00000d3c                quotactl
                0x00000d4c                mincore
                0x00000d5c                mbind
                0x00000d78                get_mempolicy
                0x00000d94                futex
                0x00000da4                vserver
                0x00000db4                request_key
                0x00000dd0                keyctl
                0x00000de0                add_key
                0x00000dfc                io_submit
                0x00000e0c                io_setup
                0x00000e1c                io_getevents
                0x00000e2c                io_destroy
                0x00000e3c                io_cancel
                0x00000e4c                inotify_rm_watch
                0x00000e5c                inotify_init
                0x00000e6c                inotify_add_watch
                0x00000e7c                setxattr
                0x00000e98                lsetxattr
                0x00000eb4                fsetxattr
                0x00000ed0                removexattr
                0x00000ee0                lremovexattr
                0x00000ef0                fremovexattr
                0x00000f00                listxattr
                0x00000f10                llistxattr
                0x00000f20                flistxattr
                0x00000f30                getxattr
                0x00000f40                lgetxattr
                0x00000f50                fgetxattr
                0x00000f60                p2c_addr
                0x00000f70                __exit
                0x00000f7c                clone
                0x00000f7c                __clone
                0x00000f8c                __longjmp
                0x00000fa4                __setjmp
                0x00000fa4                setjmp
                0x00000fa8                sigsetjmp
                0x00000fa8                __sigsetjmp
 .text          0x0000132c       0x2c D:\Project\MyProject1\mkrtos_real\mkrtos_sdk\Debug\libmkrtos_sdk.a(start.o)
                0x0000132c                _start
                0x0000134c                _exit
 .text          0x00001358       0x10 D:\Project\MyProject1\mkrtos_real\mkrtos_sdk\Debug\libmkrtos_sdk.a(arm_set_tls.o)
                0x00001358                __arm_set_tls
 .text          0x00001368       0x18 D:\Program Files (x86)\GNU Tools ARM Embedded\4.9 2014q4\lib\gcc\arm-none-eabi\4.9.3\armv7-m\libgcc.a(_lshrdi3.o)
                0x00001368                __lshrdi3
                0x00001368                __aeabi_llsr
 .text          0x00001380       0x18 D:\Program Files (x86)\GNU Tools ARM Embedded\4.9 2014q4\lib\gcc\arm-none-eabi\4.9.3\armv7-m\libgcc.a(_ashldi3.o)
                0x00001380                __aeabi_llsl
                0x00001380                __ashldi3
 .text          0x00001398      0x370 D:\Program Files (x86)\GNU Tools ARM Embedded\4.9 2014q4\lib\gcc\arm-none-eabi\4.9.3\armv7-m\libgcc.a(_arm_addsubdf3.o)
                0x00001398                __aeabi_drsub
                0x000013a0                __aeabi_dsub
                0x000013a0                __subdf3
                0x000013a4                __aeabi_dadd
                0x000013a4                __adddf3
                0x0000161c                __floatunsidf
                0x0000161c                __aeabi_ui2d
                0x0000163c                __floatsidf
                0x0000163c                __aeabi_i2d
                0x00001660                __aeabi_f2d
                0x00001660                __extendsfdf2
                0x0000169c                __floatundidf
                0x0000169c                __aeabi_ul2d
                0x000016ac                __floatdidf
                0x000016ac                __aeabi_l2d
 .text          0x00001708      0x424 D:\Program Files (x86)\GNU Tools ARM Embedded\4.9 2014q4\lib\gcc\arm-none-eabi\4.9.3\armv7-m\libgcc.a(_arm_muldivdf3.o)
                0x00001708                __aeabi_dmul
                0x00001708                __muldf3
                0x0000195c                __divdf3
                0x0000195c                __aeabi_ddiv
 .text          0x00001b2c      0x110 D:\Program Files (x86)\GNU Tools ARM Embedded\4.9 2014q4\lib\gcc\arm-none-eabi\4.9.3\armv7-m\libgcc.a(_arm_cmpdf2.o)
                0x00001b2c                __gtdf2
                0x00001b2c                __gedf2
                0x00001b34                __ltdf2
                0x00001b34                __ledf2
                0x00001b3c                __nedf2
                0x00001b3c                __eqdf2
                0x00001b3c                __cmpdf2
                0x00001bb8                __aeabi_cdrcmple
                0x00001bc8                __aeabi_cdcmpeq
                0x00001bc8                __aeabi_cdcmple
                0x00001bd8                __aeabi_dcmpeq
                0x00001bec                __aeabi_dcmplt
                0x00001c00                __aeabi_dcmple
                0x00001c14                __aeabi_dcmpge
                0x00001c28                __aeabi_dcmpgt
 .text          0x00001c3c       0xa0 D:\Program Files (x86)\GNU Tools ARM Embedded\4.9 2014q4\lib\gcc\arm-none-eabi\4.9.3\armv7-m\libgcc.a(_arm_truncdfsf2.o)
                0x00001c3c                __truncdfsf2
                0x00001c3c                __aeabi_d2f
 .text          0x00001cdc       0xec D:\Program Files (x86)\GNU Tools ARM Embedded\4.9 2014q4\lib\gcc\arm-none-eabi\4.9.3\armv7-m\libgcc.a(_arm_cmpsf2.o)
                0x00001cdc                __gesf2
                0x00001cdc                __gtsf2
                0x00001ce4                __lesf2
                0x00001ce4                __ltsf2
                0x00001cec                __nesf2
                0x00001cec                __eqsf2
                0x00001cec                __cmpsf2
                0x00001d4c                __aeabi_cfrcmple
                0x00001d54                __aeabi_cfcmpeq
                0x00001d54                __aeabi_cfcmple
                0x00001d64                __aeabi_fcmpeq
                0x00001d78                __aeabi_fcmplt
                0x00001d8c                __aeabi_fcmple
                0x00001da0                __aeabi_fcmpge
                0x00001db4                __aeabi_fcmpgt
 .text          0x00001dc8       0x2c D:\Program Files (x86)\GNU Tools ARM Embedded\4.9 2014q4\lib\gcc\arm-none-eabi\4.9.3\armv7-m\libgcc.a(_aeabi_uldivmod.o)
                0x00001dc8                __aeabi_uldivmod
 .text          0x00001df4       0x48 D:\Program Files (x86)\GNU Tools ARM Embedded\4.9 2014q4\lib\gcc\arm-none-eabi\4.9.3\armv7-m\libgcc.a(_fixunsdfdi.o)
                0x00001df4                __fixunsdfdi
                0x00001df4                __aeabi_d2ulz
 .text          0x00001e3c       0x60 D:\Program Files (x86)\GNU Tools ARM Embedded\4.9 2014q4\lib\gcc\arm-none-eabi\4.9.3\armv7-m\libgcc.a(bpabi.o)
                0x00001e3c                __gnu_ldivmod_helper
                0x00001e6c                __gnu_uldivmod_helper
 .text          0x00001e9c        0x4 D:\Program Files (x86)\GNU Tools ARM Embedded\4.9 2014q4\lib\gcc\arm-none-eabi\4.9.3\armv7-m\libgcc.a(_dvmd_tls.o)
                0x00001e9c                __aeabi_idiv0
                0x00001e9c                __aeabi_ldiv0
 .text          0x00001ea0       0x40 D:\Program Files (x86)\GNU Tools ARM Embedded\4.9 2014q4\lib\gcc\arm-none-eabi\4.9.3\armv7-m\libgcc.a(_arm_fixunsdfsi.o)
                0x00001ea0                __aeabi_d2uiz
                0x00001ea0                __fixunsdfsi
 .text          0x00001ee0      0x2ac D:\Program Files (x86)\GNU Tools ARM Embedded\4.9 2014q4\lib\gcc\arm-none-eabi\4.9.3\armv7-m\libgcc.a(_divdi3.o)
                0x00001ee0                __divdi3
 .text          0x0000218c      0x270 D:\Program Files (x86)\GNU Tools ARM Embedded\4.9 2014q4\lib\gcc\arm-none-eabi\4.9.3\armv7-m\libgcc.a(_udivdi3.o)
                0x0000218c                __udivdi3
 *(.text.*)
 .text.read32le
                0x000023fc       0x16 ./src/tcc/tcc.o
 .text.write32le
                0x00002412       0x12 ./src/tcc/tcc.o
 .text.write64le
                0x00002424       0x18 ./src/tcc/tcc.o
 .text.begin_macro
                0x0000243c       0x38 ./src/tcc/tcc.o
 .text.tok_get  0x00002474       0x70 ./src/tcc/tcc.o
 .text.define_find
                0x000024e4       0x30 ./src/tcc/tcc.o
 .text.label_find
                0x00002514       0x30 ./src/tcc/tcc.o
 .text.is_float
                0x00002544       0x1a ./src/tcc/tcc.o
 .text.PUT_R_RET
                0x0000255e       0x26 ./src/tcc/tcc.o
 .text.elfsym   0x00002584       0x20 ./src/tcc/tcc.o
 .text.update_storage
                0x000025a4       0x4c ./src/tcc/tcc.o
 .text.sym_free
                0x000025f0       0x14 ./src/tcc/tcc.o
 .text.sym_find2
                0x00002604       0x16 ./src/tcc/tcc.o
 *fill*         0x0000261a        0x2 
 .text.sym_find
                0x0000261c       0x30 ./src/tcc/tcc.o
 .text.sym_pop  0x0000264c       0x60 ./src/tcc/tcc.o
 .text.vset_VT_CMP
                0x000026ac       0x1c ./src/tcc/tcc.o
 .text.merge_symattr
                0x000026c8       0x8a ./src/tcc/tcc.o
 .text.merge_funcattr
                0x00002752       0x64 ./src/tcc/tcc.o
 *fill*         0x000027b6        0x2 
 .text.gaddrof  0x000027b8       0x2c ./src/tcc/tcc.o
 .text.type_size
                0x000027e4       0x94 ./src/tcc/tcc.o
 .text.case_cmpi
                0x00002878       0x2c ./src/tcc/tcc.o
 .text.case_cmpu
                0x000028a4       0x28 ./src/tcc/tcc.o
 .text.elf_hash
                0x000028cc       0x20 ./src/tcc/tcc.o
 .text.modify_reloctions_old_to_new
                0x000028ec       0x48 ./src/tcc/tcc.o
 .text.stuff_const
                0x00002934       0xd4 ./src/tcc/tcc.o
 .text.add_param_plan
                0x00002a08       0x22 ./src/tcc/tcc.o
 *fill*         0x00002a2a        0x2 
 .text.is_zero  0x00002a2c       0x48 ./src/tcc/tcc.o
 .text.asm_parse_regvar
                0x00002a74       0x38 ./src/tcc/tcc.o
 .text.strstart
                0x00002aac       0x20 ./src/tcc/tcc.o
 .text.link_option
                0x00002acc       0x88 ./src/tcc/tcc.o
 .text.cstr_new
                0x00002b54        0x8 ./src/tcc/tcc.o
 .text.skip_linker_arg
                0x00002b5c       0x24 ./src/tcc/tcc.o
 .text.find_elf_sym
                0x00002b80       0x4e ./src/tcc/tcc.o
 *fill*         0x00002bce        0x2 
 .text.set_flag
                0x00002bd0       0xd8 ./src/tcc/tcc.o
 .text._tcc_open
                0x00002ca8       0x8c ./src/tcc/tcc.o
 .text.print_dirs
                0x00002d34       0x54 ./src/tcc/tcc.o
 .text.full_read
                0x00002d88       0x26 ./src/tcc/tcc.o
 *fill*         0x00002dae        0x2 
 .text.tcc_object_type
                0x00002db0       0x60 ./src/tcc/tcc.o
 .text.read_ar_header
                0x00002e10       0x44 ./src/tcc/tcc.o
 .text.next_c   0x00002e54       0x78 ./src/tcc/tcc.o
 .text.pp_line  0x00002ecc       0xb4 ./src/tcc/tcc.o
 .text.getclock_ms
                0x00002f80       0x24 ./src/tcc/tcc.o
 .text.is_space
                0x00002fa4       0x18 ./src/tcc/tcc.o
 .text.check_space
                0x00002fbc       0x2c ./src/tcc/tcc.o
 .text.define_undef.isra.3
                0x00002fe8       0x34 ./src/tcc/tcc.o
 .text.is_integer_btype
                0x0000301c       0x14 ./src/tcc/tcc.o
 .text.btype_size
                0x00003030       0x2a ./src/tcc/tcc.o
 .text.adjust_bf.isra.6
                0x0000305a       0x28 ./src/tcc/tcc.o
 .text.is_null_pointer
                0x00003082       0x4c ./src/tcc/tcc.o
 .text.exact_log2p1
                0x000030ce       0x2c ./src/tcc/tcc.o
 .text.find_field.isra.11
                0x000030fa       0x48 ./src/tcc/tcc.o
 .text.tcc_debug_remove.isra.13
                0x00003142       0x3c ./src/tcc/tcc.o
 *fill*         0x0000317e        0x2 
 .text.tcc_tcov_block_end
                0x00003180       0x78 ./src/tcc/tcc.o
 .text.use_section1.isra.16
                0x000031f8       0x2c ./src/tcc/tcc.o
 .text.is_hgen_float_aggr
                0x00003224       0x4e ./src/tcc/tcc.o
 *fill*         0x00003272        0x2 
 .text.gfunc_sret
                0x00003274       0x70 ./src/tcc/tcc.o
 .text.pstrcpy.part.21
                0x000032e4       0x1c ./src/tcc/tcc.o
 .text.dwarf_file.isra.22
                0x00003300       0xb4 ./src/tcc/tcc.o
 .text.ld_inp   0x000033b4       0x30 ./src/tcc/tcc.o
 .text.ld_next  0x000033e4       0xd4 ./src/tcc/tcc.o
 .text.tcc_debug_putfile
                0x000034b8       0x48 ./src/tcc/tcc.o
 .text.RC_RET   0x00003500       0x24 ./src/tcc/tcc.o
 .text.pstrcat  0x00003524       0x20 ./src/tcc/tcc.o
 .text.compare_types
                0x00003544       0xf8 ./src/tcc/tcc.o
 .text.default_elfinterp
                0x0000363c       0x1c ./src/tcc/tcc.o
                0x0000363c                default_elfinterp
 .text.decbranch
                0x00003658       0x28 ./src/tcc/tcc.o
                0x00003658                decbranch
 .text.assign_vfpreg
                0x00003680       0x48 ./src/tcc/tcc.o
                0x00003680                assign_vfpreg
 .text.floats_in_core_regs
                0x000036c8       0x26 ./src/tcc/tcc.o
                0x000036c8                floats_in_core_regs
 *fill*         0x000036ee        0x2 
 .text.tcc_enter_state
                0x000036f0       0x14 ./src/tcc/tcc.o
                0x000036f0                tcc_enter_state
 .text.tcc_exit_state
                0x00003704       0x14 ./src/tcc/tcc.o
                0x00003704                tcc_exit_state
 .text.tcc_basename
                0x00003718       0x1c ./src/tcc/tcc.o
                0x00003718                tcc_basename
 .text.tcc_fileextension
                0x00003734       0x1e ./src/tcc/tcc.o
                0x00003734                tcc_fileextension
 .text.tcc_free
                0x00003752        0x4 ./src/tcc/tcc.o
                0x00003752                tcc_free
 .text.cstr_free
                0x00003756       0x14 ./src/tcc/tcc.o
 .text.dynarray_reset
                0x0000376a       0x2a ./src/tcc/tcc.o
 .text.tcc_close
                0x00003794       0x50 ./src/tcc/tcc.o
 .text.tal_free_impl
                0x000037e4       0x2c ./src/tcc/tcc.o
 .text.tok_str_free_str
                0x00003810       0x14 ./src/tcc/tcc.o
 .text.tok_str_free
                0x00003824       0x20 ./src/tcc/tcc.o
 .text.end_macro
                0x00003844       0x44 ./src/tcc/tcc.o
 .text.tal_delete
                0x00003888       0x1a ./src/tcc/tcc.o
 .text._tcc_error
                0x000038a2       0x18 ./src/tcc/tcc.o
                0x000038a2                _tcc_error
 *fill*         0x000038ba        0x2 
 .text.vfpr     0x000038bc       0x24 ./src/tcc/tcc.o
 .text.intr     0x000038e0       0x34 ./src/tcc/tcc.o
 .text.vpushv   0x00003914       0x48 ./src/tcc/tcc.o
 .text.vdup     0x0000395c       0x10 ./src/tcc/tcc.o
 .text.regmask  0x0000396c       0x34 ./src/tcc/tcc.o
 .text.init_assert
                0x000039a0       0x70 ./src/tcc/tcc.o
 .text.mapcc    0x00003a10       0x78 ./src/tcc/tcc.o
 .text.two2mask
                0x00003a88       0x40 ./src/tcc/tcc.o
 .text.get_sym_addr
                0x00003ac8       0x68 ./src/tcc/tcc.o
 .text.expect   0x00003b30       0x18 ./src/tcc/tcc.o
 .text.condition_code_of_token
                0x00003b48       0x2c ./src/tcc/tcc.o
 .text.test_lvalue
                0x00003b74       0x2c ./src/tcc/tcc.o
 .text.decl_design_flex.isra.29
                0x00003ba0       0x30 ./src/tcc/tcc.o
 .text.asm_encode_shift
                0x00003bd0       0x60 ./src/tcc/tcc.o
 .text.check_vstack
                0x00003c30       0x3c ./src/tcc/tcc.o
 .text.handle_stray_noerror
                0x00003c6c       0x68 ./src/tcc/tcc.o
 .text.handle_bs
                0x00003cd4       0x24 ./src/tcc/tcc.o
 .text.parse_line_comment
                0x00003cf8       0x3c ./src/tcc/tcc.o
 .text.skip_spaces
                0x00003d34       0x30 ./src/tcc/tcc.o
 .text.handle_stray
                0x00003d64       0x38 ./src/tcc/tcc.o
 .text.parse_comment
                0x00003d9c       0x8c ./src/tcc/tcc.o
 .text.encbranch
                0x00003e28       0x40 ./src/tcc/tcc.o
                0x00003e28                encbranch
 .text.gsym_addr
                0x00003e68       0x50 ./src/tcc/tcc.o
 .text.gsym     0x00003eb8       0x28 ./src/tcc/tcc.o
 .text.vpop     0x00003ee0       0x30 ./src/tcc/tcc.o
 .text.expr_type
                0x00003f10       0x38 ./src/tcc/tcc.o
 .text.tcc_malloc
                0x00003f48       0x24 ./src/tcc/tcc.o
                0x00003f48                tcc_malloc
 .text.load_data
                0x00003f6c       0x28 ./src/tcc/tcc.o
 .text.tcc_mallocz
                0x00003f94       0x18 ./src/tcc/tcc.o
                0x00003f94                tcc_mallocz
 .text.tcc_open_bf.isra.37
                0x00003fac       0x74 ./src/tcc/tcc.o
 .text.tcc_debug_stabn.part.38
                0x00004020       0x34 ./src/tcc/tcc.o
 .text.new_scope
                0x00004054       0xa0 ./src/tcc/tcc.o
 .text.tal_new  0x000040f4       0x26 ./src/tcc/tcc.o
 .text.tcc_strdup
                0x0000411a       0x1a ./src/tcc/tcc.o
                0x0000411a                tcc_strdup
 .text.default_outputfile
                0x00004134       0x94 ./src/tcc/tcc.o
 .text.tcc_realloc
                0x000041c8       0x24 ./src/tcc/tcc.o
                0x000041c8                tcc_realloc
 .text.cstr_realloc
                0x000041ec       0x22 ./src/tcc/tcc.o
 .text.cstr_ccat
                0x0000420e       0x22 ./src/tcc/tcc.o
 .text.add_char
                0x00004230       0x60 ./src/tcc/tcc.o
 .text.cstr_cat
                0x00004290       0x38 ./src/tcc/tcc.o
 .text.get_tok_str
                0x000042c8      0x204 ./src/tcc/tcc.o
 .text.type_to_str
                0x000044cc      0x3c0 ./src/tcc/tcc.o
 .text.define_print.isra.42
                0x0000488c      0x130 ./src/tcc/tcc.o
 .text.cstr_vprintf
                0x000049bc       0x46 ./src/tcc/tcc.o
 .text.cstr_printf
                0x00004a02       0x1a ./src/tcc/tcc.o
 .text.putdef   0x00004a1c       0x40 ./src/tcc/tcc.o
 .text.putdefs  0x00004a5c       0x20 ./src/tcc/tcc.o
 .text.error1   0x00004a7c      0x1e4 ./src/tcc/tcc.o
 .text._tcc_error_noabort
                0x00004c60       0x1c ./src/tcc/tcc.o
                0x00004c60                _tcc_error_noabort
 .text.section_realloc
                0x00004c7c       0x30 ./src/tcc/tcc.o
 .text.section_add
                0x00004cac       0x34 ./src/tcc/tcc.o
 .text.section_ptr_add
                0x00004ce0       0x10 ./src/tcc/tcc.o
 .text.put_elf_str
                0x00004cf0       0x24 ./src/tcc/tcc.o
 .text.rebuild_hash
                0x00004d14       0x86 ./src/tcc/tcc.o
 .text.put_elf_sym
                0x00004d9a       0xb2 ./src/tcc/tcc.o
 .text.set_elf_sym
                0x00004e4c      0x154 ./src/tcc/tcc.o
 .text.set_global_sym.isra.46
                0x00004fa0       0x3e ./src/tcc/tcc.o
 .text.dwarf_get_section_sym
                0x00004fde       0x20 ./src/tcc/tcc.o
 .text.dwarf_sleb128
                0x00004ffe       0x5c ./src/tcc/tcc.o
 .text.dwarf_uleb128
                0x0000505a       0x34 ./src/tcc/tcc.o
 .text.put_dt   0x0000508e       0x12 ./src/tcc/tcc.o
 .text.put_stabs.isra.47.constprop.141
                0x000050a0       0x64 ./src/tcc/tcc.o
 .text.gen_le32
                0x00005104       0x74 ./src/tcc/tcc.o
 .text.asm_emit_opcode
                0x00005178       0x14 ./src/tcc/tcc.o
 .text.asm_emit_coprocessor_opcode
                0x0000518c       0x40 ./src/tcc/tcc.o
 .text.g        0x000051cc       0x50 ./src/tcc/tcc.o
 .text.dynarray_add
                0x0000521c       0x2c ./src/tcc/tcc.o
 .text.__sym_malloc
                0x00005248       0x50 ./src/tcc/tcc.o
 .text.sym_push2
                0x00005298       0x48 ./src/tcc/tcc.o
 .text.label_push
                0x000052e0       0x54 ./src/tcc/tcc.o
 .text.global_identifier_push.constprop.137
                0x00005334       0x5c ./src/tcc/tcc.o
 .text.external_global_sym
                0x00005390       0x48 ./src/tcc/tcc.o
 .text.external_helper_sym
                0x000053d8       0x18 ./src/tcc/tcc.o
 .text.sym_copy
                0x000053f0       0x64 ./src/tcc/tcc.o
 .text.sym_copy_ref.constprop.129
                0x00005454       0x48 ./src/tcc/tcc.o
 .text.new_section
                0x0000549c       0x7c ./src/tcc/tcc.o
 .text.alloc_sec_names
                0x00005518       0x78 ./src/tcc/tcc.o
 .text.find_section_create
                0x00005590       0x4a ./src/tcc/tcc.o
 *fill*         0x000055da        0x2 
 .text.add_init_array_defines
                0x000055dc       0x80 ./src/tcc/tcc.o
 .text.fill_dynamic
                0x0000565c      0x23c ./src/tcc/tcc.o
 .text.new_symtab
                0x00005898       0x78 ./src/tcc/tcc.o
 .text.build_got
                0x00005910       0x54 ./src/tcc/tcc.o
 .text.put_elf_reloca.constprop.142
                0x00005964       0x64 ./src/tcc/tcc.o
 .text.dwarf_reloc.constprop.128
                0x000059c8       0x1c ./src/tcc/tcc.o
 .text.dwarf_string
                0x000059e4       0x52 ./src/tcc/tcc.o
 .text.dwarf_strp
                0x00005a36       0x18 ./src/tcc/tcc.o
 .text.dwarf_line_strp
                0x00005a4e       0x18 ./src/tcc/tcc.o
 .text.put_stabs_r.isra.55.constprop.140
                0x00005a66       0x3e ./src/tcc/tcc.o
 .text.tcc_debug_finish
                0x00005aa4      0x280 ./src/tcc/tcc.o
 .text.put_new_file
                0x00005d24       0x5c ./src/tcc/tcc.o
 .text.put_ptr  0x00005d80       0x36 ./src/tcc/tcc.o
 .text.add_array
                0x00005db6       0x3e ./src/tcc/tcc.o
 .text.tcc_add_dllref
                0x00005df4       0x7c ./src/tcc/tcc.o
 .text.search_cached_include
                0x00005e70       0x8e ./src/tcc/tcc.o
 *fill*         0x00005efe        0x2 
 .text.tcc_split_path.isra.58
                0x00005f00       0xd8 ./src/tcc/tcc.o
 .text.args_parser_make_argv
                0x00005fd8       0x8a ./src/tcc/tcc.o
 .text.args_parser_add_file
                0x00006062       0x32 ./src/tcc/tcc.o
 .text.tcc_debug_find.isra.59
                0x00006094       0x80 ./src/tcc/tcc.o
 .text.tcc_debug_add
                0x00006114       0x42 ./src/tcc/tcc.o
 .text.tcc_debug_check_anon.isra.60
                0x00006156       0x6a ./src/tcc/tcc.o
 .text.tcc_get_dwarf_info
                0x000061c0      0x798 ./src/tcc/tcc.o
 .text.tcc_debug_stabs
                0x00006958       0x98 ./src/tcc/tcc.o
 .text.tcc_get_debug_info
                0x000069f0      0x3a0 ./src/tcc/tcc.o
 .text.put_extern_sym2.constprop.139
                0x00006d90      0x26c ./src/tcc/tcc.o
 .text.put_extern_sym
                0x00006ffc       0x40 ./src/tcc/tcc.o
 .text.greloca.constprop.138
                0x0000703c       0x58 ./src/tcc/tcc.o
 .text.pop_local_syms
                0x00007094      0x188 ./src/tcc/tcc.o
 .text.get_sym_attr
                0x0000721c       0x54 ./src/tcc/tcc.o
 .text.tcc_load_object_file
                0x00007270      0x524 ./src/tcc/tcc.o
 .text.tcc_load_alacarte
                0x00007794      0x17c ./src/tcc/tcc.o
 .text.set_ver_to_ver
                0x00007910       0xc4 ./src/tcc/tcc.o
 .text.tal_realloc_impl
                0x000079d4       0xd4 ./src/tcc/tcc.o
 .text.tok_str_realloc
                0x00007aa8       0x3c ./src/tcc/tcc.o
 .text.tok_str_add2
                0x00007ae4       0xac ./src/tcc/tcc.o
 .text.tok_str_add_tok
                0x00007b90       0x4c ./src/tcc/tcc.o
 .text.tok_str_add
                0x00007bdc       0x24 ./src/tcc/tcc.o
 .text.tok_str_alloc
                0x00007c00       0x30 ./src/tcc/tcc.o
 .text.unget_tok
                0x00007c30       0x40 ./src/tcc/tcc.o
 .text.tcc_debug_bincl.part.74
                0x00007c70      0x124 ./src/tcc/tcc.o
 .text.dwarf_line_op.isra.75
                0x00007d94       0x2c ./src/tcc/tcc.o
 .text.dwarf_uleb128_op
                0x00007dc0       0x34 ./src/tcc/tcc.o
 .text.tcc_debug_line
                0x00007df4      0x190 ./src/tcc/tcc.o
 .text.tcc_debug_start
                0x00007f84      0x524 ./src/tcc/tcc.o
 .text.tcc_debug_end.part.77
                0x000084a8      0x4c8 ./src/tcc/tcc.o
 .text.copy_linker_arg
                0x00008970       0x4c ./src/tcc/tcc.o
 .text.tcc_tool_ar.isra.78
                0x000089bc      0x5d8 ./src/tcc/tcc.o
 .text.parse_pp_string
                0x00008f94       0xcc ./src/tcc/tcc.o
 .text.type_incompatibility_error
                0x00009060       0x34 ./src/tcc/tcc.o
 .text.check_fields.isra.43
                0x00009094       0x70 ./src/tcc/tcc.o
 .text.o        0x00009104       0x8c ./src/tcc/tcc.o
 .text.gjmp_acs
                0x00009190       0x3c ./src/tcc/tcc.o
 .text.stuff_const_harder
                0x000091cc      0x1d4 ./src/tcc/tcc.o
                0x000091cc                stuff_const_harder
 .text.calcaddr
                0x000093a0       0x98 ./src/tcc/tcc.o
 .text.load_value
                0x00009438       0x54 ./src/tcc/tcc.o
 .text.gen_bounds_call
                0x0000948c       0x38 ./src/tcc/tcc.o
 .text.gjmp_addr_acs
                0x000094c4       0x38 ./src/tcc/tcc.o
 .text.asm_emit_coprocessor_data_transfer
                0x000094fc       0xdc ./src/tcc/tcc.o
 .text.sym_push
                0x000095d8       0xb4 ./src/tcc/tcc.o
 .text.mk_pointer
                0x0000968c       0x24 ./src/tcc/tcc.o
 .text.convert_parameter_type
                0x000096b0       0x16 ./src/tcc/tcc.o
 .text.parse_btype_qualify
                0x000096c6       0x2c ./src/tcc/tcc.o
 *fill*         0x000096f2        0x2 
 .text.get_sym_ref
                0x000096f4       0x40 ./src/tcc/tcc.o
 .text.tcc_write_elf_file
                0x00009734      0x750 ./src/tcc/tcc.o
 .text.load     0x00009e84      0x328 ./src/tcc/tcc.o
 .text.vla_restore
                0x0000a1ac       0x26 ./src/tcc/tcc.o
 *fill*         0x0000a1d2        0x2 
 .text.vla_leave
                0x0000a1d4       0x2c ./src/tcc/tcc.o
 .text.store    0x0000a200      0x150 ./src/tcc/tcc.o
 .text.save_reg_upstack
                0x0000a350      0x1ac ./src/tcc/tcc.o
 .text.get_reg  0x0000a4fc       0x98 ./src/tcc/tcc.o
 .text.get_reg_ex
                0x0000a594       0x60 ./src/tcc/tcc.o
 .text.tcc_tcov_block_begin
                0x0000a5f4      0x39c ./src/tcc/tcc.o
 .text.tcc_tcov_check_line
                0x0000a990       0x48 ./src/tcc/tcc.o
 .text.gind     0x0000a9d8       0x44 ./src/tcc/tcc.o
 .text.save_regs
                0x0000aa1c       0x30 ./src/tcc/tcc.o
 .text.asm_gen_code
                0x0000aa4c      0x1ac ./src/tcc/tcc.o
 .text.build_got_entries
                0x0000abf8      0x370 ./src/tcc/tcc.o
 .text.tok_alloc_new
                0x0000af68       0xa4 ./src/tcc/tcc.o
 .text.tok_alloc
                0x0000b00c       0x60 ./src/tcc/tcc.o
 .text.tok_alloc_const
                0x0000b06c       0x14 ./src/tcc/tcc.o
 .text.asm2cname.part.67
                0x0000b080       0x58 ./src/tcc/tcc.o
 .text.asm_label_push
                0x0000b0d8       0x34 ./src/tcc/tcc.o
 .text.asm_label_find
                0x0000b10c       0x3c ./src/tcc/tcc.o
 .text.get_asm_sym
                0x0000b148       0x1a ./src/tcc/tcc.o
 .text.find_constraint
                0x0000b162       0x86 ./src/tcc/tcc.o
 .text.asm_new_label1.isra.69
                0x0000b1e8       0x8c ./src/tcc/tcc.o
 .text.asm_new_label.isra.70
                0x0000b274       0x24 ./src/tcc/tcc.o
 .text.gen_makedeps
                0x0000b298      0x150 ./src/tcc/tcc.o
 .text._tcc_warning
                0x0000b3e8       0x1c ./src/tcc/tcc.o
                0x0000b3e8                _tcc_warning
 .text.verify_assign_cast
                0x0000b404      0x1c0 ./src/tcc/tcc.o
 .text.unlikely.type_incompatibility_warning
                0x0000b5c4       0x3a ./src/tcc/tcc.o
 *fill*         0x0000b5fe        0x2 
 .text.combine_types
                0x0000b600      0x29c ./src/tcc/tcc.o
 .text.gen_cast
                0x0000b89c      0x5f0 ./src/tcc/tcc.o
 .text.gen_cast_s
                0x0000be8c       0x14 ./src/tcc/tcc.o
 .text.force_charshort_cast
                0x0000bea0       0x40 ./src/tcc/tcc.o
 .text.condition_3way
                0x0000bee0       0x44 ./src/tcc/tcc.o
 .text.gen_assign_cast
                0x0000bf24       0x12 ./src/tcc/tcc.o
 *fill*         0x0000bf36        0x2 
 .text.init_putv
                0x0000bf38      0x26c ./src/tcc/tcc.o
 .text.gv       0x0000c1a4      0x3bc ./src/tcc/tcc.o
 .text.vcheck_cmp
                0x0000c560       0x28 ./src/tcc/tcc.o
 .text.vsetc    0x0000c588       0x68 ./src/tcc/tcc.o
 .text.vpush64  0x0000c5f0       0x1c ./src/tcc/tcc.o
 .text.vpushi   0x0000c60c        0xa ./src/tcc/tcc.o
 .text.vpushs   0x0000c616        0xa ./src/tcc/tcc.o
 .text.vpushsym
                0x0000c620       0x28 ./src/tcc/tcc.o
 .text.vpush_helper_func
                0x0000c648       0x20 ./src/tcc/tcc.o
 .text.vpush_ref
                0x0000c668       0x14 ./src/tcc/tcc.o
 .text.vset     0x0000c67c       0x14 ./src/tcc/tcc.o
 .text.vpush_type_size
                0x0000c690       0x58 ./src/tcc/tcc.o
 .text.vpush    0x0000c6e8        0x8 ./src/tcc/tcc.o
 .text.vrotb    0x0000c6f0       0x60 ./src/tcc/tcc.o
 .text.vrott    0x0000c750       0x70 ./src/tcc/tcc.o
 .text.vswap    0x0000c7c0       0x4c ./src/tcc/tcc.o
 .text.gcall_or_jmp
                0x0000c80c       0xd4 ./src/tcc/tcc.o
 .text.gv2      0x0000c8e0       0x80 ./src/tcc/tcc.o
 .text.lbuild   0x0000c960       0x2c ./src/tcc/tcc.o
 .text.lexpand  0x0000c98c       0x7c ./src/tcc/tcc.o
 .text.gv_dup   0x0000ca08       0x94 ./src/tcc/tcc.o
 .text.gen_opic
                0x0000ca9c      0xe78 ./src/tcc/tcc.o
 .text.gen_op   0x0000d914      0x26c ./src/tcc/tcc.o
 .text.gvtst_set
                0x0000db80       0x94 ./src/tcc/tcc.o
 .text.gvtst    0x0000dc14       0x80 ./src/tcc/tcc.o
 .text.gtst_addr.constprop.131
                0x0000dc94       0x16 ./src/tcc/tcc.o
 *fill*         0x0000dcaa        0x2 
 .text.incr_bf_adr
                0x0000dcac       0x44 ./src/tcc/tcc.o
 .text.gen_negf
                0x0000dcf0       0x16 ./src/tcc/tcc.o
                0x0000dcf0                gen_negf
 *fill*         0x0000dd06        0x2 
 .text.gen_opif
                0x0000dd08      0x3b8 ./src/tcc/tcc.o
 .text.vstore   0x0000e0c0      0x3d4 ./src/tcc/tcc.o
 .text.gfunc_call
                0x0000e494      0x550 ./src/tcc/tcc.o
 .text.gen_bounded_ptr_add
                0x0000e9e4       0x80 ./src/tcc/tcc.o
 .text.gbound   0x0000ea64       0xd4 ./src/tcc/tcc.o
 .text.init_putz
                0x0000eb38       0x40 ./src/tcc/tcc.o
 .text.try_call_scope_cleanup
                0x0000eb78       0x50 ./src/tcc/tcc.o
 .text.leave_scope
                0x0000ebc8       0x18 ./src/tcc/tcc.o
 .text.gcase    0x0000ebe0      0x134 ./src/tcc/tcc.o
 .text.indir    0x0000ed14       0x7c ./src/tcc/tcc.o
 .text.gfunc_return.constprop.127
                0x0000ed90      0x140 ./src/tcc/tcc.o
 .text.define_push
                0x0000eed0      0x10c ./src/tcc/tcc.o
 .text.patch_storage
                0x0000efdc      0x178 ./src/tcc/tcc.o
 .text.external_sym
                0x0000f154       0x74 ./src/tcc/tcc.o
 .text.label_pop
                0x0000f1c8       0xc4 ./src/tcc/tcc.o
 .text.prev_scope
                0x0000f28c      0x110 ./src/tcc/tcc.o
 .text.parse_string
                0x0000f39c      0x404 ./src/tcc/tcc.o
 .text.tcc_define_symbol
                0x0000f7a0       0x54 ./src/tcc/tcc.o
                0x0000f7a0                tcc_define_symbol
 .text.tcc_undefine_symbol
                0x0000f7f4       0x1c ./src/tcc/tcc.o
                0x0000f7f4                tcc_undefine_symbol
 .text.tcc_delete
                0x0000f810      0x160 ./src/tcc/tcc.o
                0x0000f810                tcc_delete
 .text.tcc_add_include_path
                0x0000f970       0x16 ./src/tcc/tcc.o
                0x0000f970                tcc_add_include_path
 .text.tcc_add_sysinclude_path
                0x0000f986       0x16 ./src/tcc/tcc.o
                0x0000f986                tcc_add_sysinclude_path
 .text.tcc_add_library_path
                0x0000f99c       0x16 ./src/tcc/tcc.o
                0x0000f99c                tcc_add_library_path
 *fill*         0x0000f9b2        0x2 
 .text.set_environment
                0x0000f9b4       0x64 ./src/tcc/tcc.o
 .text.tcc_set_lib_path
                0x0000fa18       0x16 ./src/tcc/tcc.o
                0x0000fa18                tcc_set_lib_path
 *fill*         0x0000fa2e        0x2 
 .text.tcc_new  0x0000fa30       0x60 ./src/tcc/tcc.o
                0x0000fa30                tcc_new
 .text.tcc_parse_args
                0x0000fa90      0xa08 ./src/tcc/tcc.o
                0x0000fa90                tcc_parse_args
 .text.tcc_set_options
                0x00010498       0x30 ./src/tcc/tcc.o
                0x00010498                tcc_set_options
 .text.preprocess
                0x000104c8      0xa24 ./src/tcc/tcc.o
 .text.next_nomacro1
                0x00010eec      0x88c ./src/tcc/tcc.o
 .text.next_nomacro
                0x00011778       0x98 ./src/tcc/tcc.o
 .text.next_argstream
                0x00011810      0x11c ./src/tcc/tcc.o
 .text.macro_subst_tok
                0x0001192c      0x81c ./src/tcc/tcc.o
 .text.next     0x00012148      0x51c ./src/tcc/tcc.o
 .text.tcc_preprocess
                0x00012664      0x28c ./src/tcc/tcc.o
 .text.parse_include
                0x000128f0      0x2a0 ./src/tcc/tcc.o
 .text.parse_mult_str
                0x00012b90       0x50 ./src/tcc/tcc.o
 .text.asm_expr_logic.isra.89
                0x00012be0       0x48 ./src/tcc/tcc.o
 .text.asm_expr_sum.isra.90
                0x00012c28       0xf8 ./src/tcc/tcc.o
 .text.asm_expr_cmp.isra.91
                0x00012d20       0xc8 ./src/tcc/tcc.o
 .text.asm_int_expr.isra.93
                0x00012de8       0x28 ./src/tcc/tcc.o
 .text.set_symbol.isra.94
                0x00012e10       0x44 ./src/tcc/tcc.o
 .text.parse_operand.isra.95
                0x00012e54      0x134 ./src/tcc/tcc.o
 .text.asm_parse_optional_shift.isra.100
                0x00012f88       0x88 ./src/tcc/tcc.o
 .text.asm_coprocessor_opcode.isra.107
                0x00013010      0x1f4 ./src/tcc/tcc.o
 .text.asm_coprocessor_data_transfer_opcode.isra.108
                0x00013204      0x23c ./src/tcc/tcc.o
 .text.asm_floating_point_data_processing_opcode.isra.111
                0x00013440      0x6b8 ./src/tcc/tcc.o
 .text.skip_or_save_block
                0x00013af8       0xac ./src/tcc/tcc.o
 .text.skip     0x00013ba4       0x48 ./src/tcc/tcc.o
 .text.parse_asm_str
                0x00013bec       0x24 ./src/tcc/tcc.o
 .text.tcc_assemble_internal
                0x00013c10     0x1dc8 ./src/tcc/tcc.o
 .text.asm_parse_directive
                0x000159d8      0x738 ./src/tcc/tcc.o
 .text.tcc_assemble_inline
                0x00016110       0x90 ./src/tcc/tcc.o
 .text.struct_decl
                0x000161a0      0x944 ./src/tcc/tcc.o
 .text.parse_btype
                0x00016ae4      0x468 ./src/tcc/tcc.o
 .text.decl     0x00016f4c      0x68c ./src/tcc/tcc.o
 .text.block    0x000175d8      0x934 ./src/tcc/tcc.o
 .text.unary    0x00017f0c     0x1024 ./src/tcc/tcc.o
 .text.expr_infix
                0x00018f30      0x108 ./src/tcc/tcc.o
 .text.expr_cond
                0x00019038      0x324 ./src/tcc/tcc.o
 .text.expr_const1
                0x0001935c       0x38 ./src/tcc/tcc.o
 .text.expr_const64
                0x00019394       0x44 ./src/tcc/tcc.o
 .text.expr_const
                0x000193d8       0x34 ./src/tcc/tcc.o
 .text.expr_preprocess
                0x0001940c      0x1ec ./src/tcc/tcc.o
 .text.parse_attribute
                0x000195f8      0x3d8 ./src/tcc/tcc.o
 .text.expr_eq  0x000199d0       0x58 ./src/tcc/tcc.o
 .text.parse_init_elem
                0x00019a28       0x6c ./src/tcc/tcc.o
 .text.decl_initializer
                0x00019a94      0x750 ./src/tcc/tcc.o
 .text.decl_initializer_alloc
                0x0001a1e4      0x570 ./src/tcc/tcc.o
 .text.gexpr    0x0001a754       0x24 ./src/tcc/tcc.o
 .text.post_type
                0x0001a778      0x42c ./src/tcc/tcc.o
 .text.type_decl
                0x0001aba4      0x120 ./src/tcc/tcc.o
 .text.parse_expr_type
                0x0001acc4       0x48 ./src/tcc/tcc.o
 .text.parse_builtin_params
                0x0001ad0c       0xf0 ./src/tcc/tcc.o
 .text.func_vla_arg_code
                0x0001adfc       0xa0 ./src/tcc/tcc.o
 .text.parse_asm_operands
                0x0001ae9c      0x110 ./src/tcc/tcc.o
 .text.asm_instr
                0x0001afac      0x898 ./src/tcc/tcc.o
 .text.gen_function
                0x0001b844      0x964 ./src/tcc/tcc.o
 .text.lblock   0x0001c1a8       0x44 ./src/tcc/tcc.o
 .text.tcc_compile
                0x0001c1ec      0xcac ./src/tcc/tcc.o
 .text.tcc_add_file_internal
                0x0001ce98      0x544 ./src/tcc/tcc.o
 .text.tcc_add_library_internal
                0x0001d3dc       0x50 ./src/tcc/tcc.o
 .text.tcc_add_crt
                0x0001d42c       0x50 ./src/tcc/tcc.o
 .text.tcc_set_output_type
                0x0001d47c      0x384 ./src/tcc/tcc.o
                0x0001d47c                tcc_set_output_type
 .text.tcc_add_library
                0x0001d800       0x48 ./src/tcc/tcc.o
                0x0001d800                tcc_add_library
 .text.tcc_add_library_err
                0x0001d848       0x30 ./src/tcc/tcc.o
                0x0001d848                tcc_add_library_err
 .text.tcc_add_support
                0x0001d878       0x50 ./src/tcc/tcc.o
 .text.ld_add_file
                0x0001d8c8       0x44 ./src/tcc/tcc.o
 .text.ld_add_file_list
                0x0001d90c      0x1ec ./src/tcc/tcc.o
 .text.tcc_load_ldscript
                0x0001daf8       0xec ./src/tcc/tcc.o
 .text.tcc_add_file
                0x0001dbe4       0xb0 ./src/tcc/tcc.o
                0x0001dbe4                tcc_add_file
 .text.tcc_compile_string
                0x0001dc94        0xc ./src/tcc/tcc.o
                0x0001dc94                tcc_compile_string
 .text.elf_output_file
                0x0001dca0     0x1964 ./src/tcc/tcc.o
 .text.tcc_tcov_add_file
                0x0001f604      0x10c ./src/tcc/tcc.o
 .text.tcc_output_file
                0x0001f710       0x74 ./src/tcc/tcc.o
                0x0001f710                tcc_output_file
 .text.macro_subst
                0x0001f784      0x118 ./src/tcc/tcc.o
 .text.tcc_print_stats
                0x0001f89c       0x90 ./src/tcc/tcc.o
                0x0001f89c                tcc_print_stats
 .text.startup.main
                0x0001f92c      0x3d0 ./src/tcc/tcc.o
                0x0001f92c                main
 .text.localtime
                0x0001fcfc       0x18 D:\Project\MyProject1\mkrtos_real\mkrtos_sdk\Debug\libmkrtos_sdk.a(localtime.o)
                0x0001fcfc                localtime
 .text.localtime_r
                0x0001fd14       0x28 D:\Project\MyProject1\mkrtos_real\mkrtos_sdk\Debug\libmkrtos_sdk.a(localtime_r.o)
                0x0001fd14                localtime_r
 .text.__myntohl
                0x0001fd3c       0x16 D:\Project\MyProject1\mkrtos_real\mkrtos_sdk\Debug\libmkrtos_sdk.a(tzfile.o)
 *fill*         0x0001fd52        0x2 
 .text.__maplocaltime
                0x0001fd54       0x9c D:\Project\MyProject1\mkrtos_real\mkrtos_sdk\Debug\libmkrtos_sdk.a(tzfile.o)
                0x0001fd54                __maplocaltime
 .text.__tzfile_map
                0x0001fdf0      0x104 D:\Project\MyProject1\mkrtos_real\mkrtos_sdk\Debug\libmkrtos_sdk.a(tzfile.o)
                0x0001fdf0                __tzfile_map
 .text.fclose_unlocked
                0x0001fef4       0x50 D:\Project\MyProject1\mkrtos_real\mkrtos_sdk\Debug\libmkrtos_sdk.a(fclose.o)
                0x0001fef4                fclose
                0x0001fef4                fclose_unlocked
 .text.fdopen_unlocked
                0x0001ff44       0x28 D:\Project\MyProject1\mkrtos_real\mkrtos_sdk\Debug\libmkrtos_sdk.a(fdopen.o)
                0x0001ff44                fdopen
                0x0001ff44                fdopen_unlocked
 .text.fflush_unlocked
                0x0001ff6c       0x84 D:\Project\MyProject1\mkrtos_real\mkrtos_sdk\Debug\libmkrtos_sdk.a(fflush.o)
                0x0001ff6c                fflush_unlocked
                0x0001ff6c                fflush
 .text.__stdio_flushall
                0x0001fff0        0xa D:\Project\MyProject1\mkrtos_real\mkrtos_sdk\Debug\libmkrtos_sdk.a(fflush.o)
                0x0001fff0                __stdio_flushall
 *fill*         0x0001fffa        0x2 
 .text.__fflush4
                0x0001fffc       0x64 D:\Project\MyProject1\mkrtos_real\mkrtos_sdk\Debug\libmkrtos_sdk.a(fflush.o)
                0x0001fffc                __fflush4
 .text.__stdio_outs
                0x00020060       0x20 D:\Project\MyProject1\mkrtos_real\mkrtos_sdk\Debug\libmkrtos_sdk.a(fflush.o)
                0x00020060                __stdio_outs
 .text.fopen_unlocked
                0x00020080       0x2c D:\Project\MyProject1\mkrtos_real\mkrtos_sdk\Debug\libmkrtos_sdk.a(fopen.o)
                0x00020080                fopen
                0x00020080                fopen_unlocked
 .text.fprintf  0x000200ac       0x1a D:\Project\MyProject1\mkrtos_real\mkrtos_sdk\Debug\libmkrtos_sdk.a(fprintf.o)
                0x000200ac                fprintf
 .text.fputc_unlocked
                0x000200c6       0x88 D:\Project\MyProject1\mkrtos_real\mkrtos_sdk\Debug\libmkrtos_sdk.a(fputc_unlocked.o)
                0x000200c6                fputc_unlocked
                0x000200c6                fputc
 .text.fputs_unlocked
                0x0002014e       0x1a D:\Project\MyProject1\mkrtos_real\mkrtos_sdk\Debug\libmkrtos_sdk.a(fputs.o)
                0x0002014e                fputs
                0x0002014e                fputs_unlocked
 .text.fread_unlocked
                0x00020168      0x116 D:\Project\MyProject1\mkrtos_real\mkrtos_sdk\Debug\libmkrtos_sdk.a(fread.o)
                0x00020168                fread_unlocked
                0x00020168                fread
 .text.fseek_unlocked
                0x0002027e       0x34 D:\Project\MyProject1\mkrtos_real\mkrtos_sdk\Debug\libmkrtos_sdk.a(fseek.o)
                0x0002027e                fseek
                0x0002027e                fseek_unlocked
 .text.ftell_unlocked
                0x000202b2       0x38 D:\Project\MyProject1\mkrtos_real\mkrtos_sdk\Debug\libmkrtos_sdk.a(ftell.o)
                0x000202b2                ftell_unlocked
                0x000202b2                ftell
 .text.fwrite_unlocked
                0x000202ea      0x124 D:\Project\MyProject1\mkrtos_real\mkrtos_sdk\Debug\libmkrtos_sdk.a(fwrite.o)
                0x000202ea                fwrite
                0x000202ea                fwrite_unlocked
 .text.printf   0x0002040e       0x1a D:\Project\MyProject1\mkrtos_real\mkrtos_sdk\Debug\libmkrtos_sdk.a(printf.o)
                0x0002040e                printf
 .text.__fflush_stderr
                0x00020428       0x10 D:\Project\MyProject1\mkrtos_real\mkrtos_sdk\Debug\libmkrtos_sdk.a(stderr.o)
                0x00020428                __fflush_stderr
 .text.__stdin_is_tty
                0x00020438       0x20 D:\Project\MyProject1\mkrtos_real\mkrtos_sdk\Debug\libmkrtos_sdk.a(stdin.o)
                0x00020438                __stdin_is_tty
 .text.__fflush_stdout
                0x00020458       0x10 D:\Project\MyProject1\mkrtos_real\mkrtos_sdk\Debug\libmkrtos_sdk.a(stdout.o)
                0x00020458                __fflush_stdout
 .text.__fwrite
                0x00020468       0x12 D:\Project\MyProject1\mkrtos_real\mkrtos_sdk\Debug\libmkrtos_sdk.a(vfprintf.o)
 *fill*         0x0002047a        0x2 
 .text.vfprintf
                0x0002047c       0x1c D:\Project\MyProject1\mkrtos_real\mkrtos_sdk\Debug\libmkrtos_sdk.a(vfprintf.o)
                0x0002047c                vfprintf
 .text.vprintf  0x00020498       0x24 D:\Project\MyProject1\mkrtos_real\mkrtos_sdk\Debug\libmkrtos_sdk.a(vprintf.o)
                0x00020498                vprintf
 .text.getcwd   0x000204bc       0x28 D:\Project\MyProject1\mkrtos_real\mkrtos_sdk\Debug\libmkrtos_sdk.a(__getcwd.o)
                0x000204bc                getcwd
 .text.mmap     0x000204e4       0x26 D:\Project\MyProject1\mkrtos_real\mkrtos_sdk\Debug\libmkrtos_sdk.a(__mmap.o)
                0x000204e4                mmap
 .text.time     0x0002050a       0x20 D:\Project\MyProject1\mkrtos_real\mkrtos_sdk\Debug\libmkrtos_sdk.a(__time.o)
                0x0002050a                time
 *fill*         0x0002052a        0x2 
 .text.write_pad
                0x0002052c       0x7c D:\Project\MyProject1\mkrtos_real\mkrtos_sdk\Debug\libmkrtos_sdk.a(__v_printf.o)
 .text.__v_printf
                0x000205a8      0x47c D:\Project\MyProject1\mkrtos_real\mkrtos_sdk\Debug\libmkrtos_sdk.a(__v_printf.o)
                0x000205a8                __v_printf
 .text.get_index
                0x00020a24       0x12 D:\Project\MyProject1\mkrtos_real\mkrtos_sdk\Debug\libmkrtos_sdk.a(alloc.o)
 *fill*         0x00020a36        0x2 
 .text._alloc_libc_free
                0x00020a38       0x4c D:\Project\MyProject1\mkrtos_real\mkrtos_sdk\Debug\libmkrtos_sdk.a(alloc.o)
                0x00020a38                free
                0x00020a38                __libc_free
 .text._alloc_libc_malloc
                0x00020a84       0xb8 D:\Project\MyProject1\mkrtos_real\mkrtos_sdk\Debug\libmkrtos_sdk.a(alloc.o)
                0x00020a84                __libc_malloc
                0x00020a84                malloc
 .text.__libc_realloc
                0x00020b3c       0xa4 D:\Project\MyProject1\mkrtos_real\mkrtos_sdk\Debug\libmkrtos_sdk.a(alloc.o)
                0x00020b3c                realloc
                0x00020b3c                __libc_realloc
 .text.atexit   0x00020be0       0x2c D:\Project\MyProject1\mkrtos_real\mkrtos_sdk\Debug\libmkrtos_sdk.a(atexit.o)
                0x00020be0                atexit
 .text.__libc_exit
                0x00020c0c       0x30 D:\Project\MyProject1\mkrtos_real\mkrtos_sdk\Debug\libmkrtos_sdk.a(atexit.o)
                0x00020c0c                exit
                0x00020c0c                __libc_exit
 .text.atol     0x00020c3c       0x4c D:\Project\MyProject1\mkrtos_real\mkrtos_sdk\Debug\libmkrtos_sdk.a(atol.o)
                0x00020c3c                atoi
                0x00020c3c                atol
 .text.__errno_location
                0x00020c88       0x14 D:\Project\MyProject1\mkrtos_real\mkrtos_sdk\Debug\libmkrtos_sdk.a(errno_location.o)
                0x00020c88                __errno_location
 .text.getenv   0x00020c9c       0x44 D:\Project\MyProject1\mkrtos_real\mkrtos_sdk\Debug\libmkrtos_sdk.a(getenv.o)
                0x00020c9c                getenv
 .text.htonl    0x00020ce0        0x4 D:\Project\MyProject1\mkrtos_real\mkrtos_sdk\Debug\libmkrtos_sdk.a(htonl.o)
                0x00020ce0                htonl
                0x00020ce0                ntohl
 .text.isatty   0x00020ce4       0x2a D:\Project\MyProject1\mkrtos_real\mkrtos_sdk\Debug\libmkrtos_sdk.a(isatty.o)
                0x00020ce4                isatty
 .text.__libc_longjmp
                0x00020d0e       0x26 D:\Project\MyProject1\mkrtos_real\mkrtos_sdk\Debug\libmkrtos_sdk.a(longjmp.o)
                0x00020d0e                __siglongjmp
                0x00020d0e                siglongjmp
                0x00020d0e                __libc_longjmp
                0x00020d0e                longjmp
 .text.memcmp   0x00020d34       0x1c D:\Project\MyProject1\mkrtos_real\mkrtos_sdk\Debug\libmkrtos_sdk.a(memcmp.o)
                0x00020d34                memcmp
                0x00020d34                bcmp
 .text.memcpy   0x00020d50       0x80 D:\Project\MyProject1\mkrtos_real\mkrtos_sdk\Debug\libmkrtos_sdk.a(memcpy.o)
                0x00020d50                memcpy
 .text.memmove  0x00020dd0       0x36 D:\Project\MyProject1\mkrtos_real\mkrtos_sdk\Debug\libmkrtos_sdk.a(memmove.o)
                0x00020dd0                memmove
 .text.memset   0x00020e06       0x10 D:\Project\MyProject1\mkrtos_real\mkrtos_sdk\Debug\libmkrtos_sdk.a(memset.o)
                0x00020e06                memset
 .text.exch     0x00020e16       0x20 D:\Project\MyProject1\mkrtos_real\mkrtos_sdk\Debug\libmkrtos_sdk.a(qsort.o)
 .text.quicksort
                0x00020e36      0x136 D:\Project\MyProject1\mkrtos_real\mkrtos_sdk\Debug\libmkrtos_sdk.a(qsort.o)
 .text.qsort    0x00020f6c       0x28 D:\Project\MyProject1\mkrtos_real\mkrtos_sdk\Debug\libmkrtos_sdk.a(qsort.o)
                0x00020f6c                qsort
 .text.rand     0x00020f94       0x18 D:\Project\MyProject1\mkrtos_real\mkrtos_sdk\Debug\libmkrtos_sdk.a(rand.o)
                0x00020f94                rand
                0x00020f94                random
 .text.rand_r   0x00020fac       0x38 D:\Project\MyProject1\mkrtos_real\mkrtos_sdk\Debug\libmkrtos_sdk.a(rand_r.o)
                0x00020fac                rand_r
 .text.remove   0x00020fe4       0x24 D:\Project\MyProject1\mkrtos_real\mkrtos_sdk\Debug\libmkrtos_sdk.a(remove.o)
                0x00020fe4                remove
 .text.sigprocmask
                0x00021008        0x6 D:\Project\MyProject1\mkrtos_real\mkrtos_sdk\Debug\libmkrtos_sdk.a(sigprocmask.o)
                0x00021008                sigprocmask
 .text.snprintf
                0x0002100e       0x1a D:\Project\MyProject1\mkrtos_real\mkrtos_sdk\Debug\libmkrtos_sdk.a(snprintf.o)
                0x0002100e                snprintf
 .text.sprintf  0x00021028       0x1a D:\Project\MyProject1\mkrtos_real\mkrtos_sdk\Debug\libmkrtos_sdk.a(sprintf.o)
                0x00021028                sprintf
 .text.sscanf   0x00021042       0x1a D:\Project\MyProject1\mkrtos_real\mkrtos_sdk\Debug\libmkrtos_sdk.a(sscanf.o)
                0x00021042                sscanf
 .text.strchr   0x0002105c       0x36 D:\Project\MyProject1\mkrtos_real\mkrtos_sdk\Debug\libmkrtos_sdk.a(strchr.o)
                0x0002105c                strchr
                0x0002105c                index
 *fill*         0x00021092        0x2 
 .text.strcmp   0x00021094       0xac D:\Project\MyProject1\mkrtos_real\mkrtos_sdk\Debug\libmkrtos_sdk.a(strcmp.o)
                0x00021094                strcmp
                0x00021094                strcoll
 .text.strcpy   0x00021140       0x80 D:\Project\MyProject1\mkrtos_real\mkrtos_sdk\Debug\libmkrtos_sdk.a(strcpy.o)
                0x00021140                strcpy
 .text.strerror
                0x000211c0       0x14 D:\Project\MyProject1\mkrtos_real\mkrtos_sdk\Debug\libmkrtos_sdk.a(strerror.o)
                0x000211c0                strerror
 .text.strlen   0x000211d4       0x64 D:\Project\MyProject1\mkrtos_real\mkrtos_sdk\Debug\libmkrtos_sdk.a(strlen.o)
                0x000211d4                strlen
 .text.strncmp  0x00021238       0x22 D:\Project\MyProject1\mkrtos_real\mkrtos_sdk\Debug\libmkrtos_sdk.a(strncmp.o)
                0x00021238                strncmp
 .text.strncpy  0x0002125a       0x10 D:\Project\MyProject1\mkrtos_real\mkrtos_sdk\Debug\libmkrtos_sdk.a(strncpy.o)
                0x0002125a                strncpy
 .text.strrchr  0x0002126a       0x34 D:\Project\MyProject1\mkrtos_real\mkrtos_sdk\Debug\libmkrtos_sdk.a(strrchr.o)
                0x0002126a                rindex
                0x0002126a                strrchr
 .text.strstr   0x0002129e       0x52 D:\Project\MyProject1\mkrtos_real\mkrtos_sdk\Debug\libmkrtos_sdk.a(strstr.o)
                0x0002129e                strstr
 .text.strtol   0x000212f0       0x8c D:\Project\MyProject1\mkrtos_real\mkrtos_sdk\Debug\libmkrtos_sdk.a(strtol.o)
                0x000212f0                strtol
 .text.strtoll  0x0002137c       0xa4 D:\Project\MyProject1\mkrtos_real\mkrtos_sdk\Debug\libmkrtos_sdk.a(strtoll.o)
                0x0002137c                strtoll
                0x0002137c                strtoimax
 .text.strtoul  0x00021420      0x110 D:\Project\MyProject1\mkrtos_real\mkrtos_sdk\Debug\libmkrtos_sdk.a(strtoul.o)
                0x00021420                strtoul
 .text.strtoull
                0x00021530      0x150 D:\Project\MyProject1\mkrtos_real\mkrtos_sdk\Debug\libmkrtos_sdk.a(strtoull.o)
                0x00021530                strtoull
                0x00021530                strtouq
                0x00021530                strtoumax
 .text.swrite   0x00021680       0x38 D:\Project\MyProject1\mkrtos_real\mkrtos_sdk\Debug\libmkrtos_sdk.a(vsnprintf.o)
 .text.vsnprintf
                0x000216b8       0x54 D:\Project\MyProject1\mkrtos_real\mkrtos_sdk\Debug\libmkrtos_sdk.a(vsnprintf.o)
                0x000216b8                vsnprintf
 .text.vsprintf
                0x0002170c       0x12 D:\Project\MyProject1\mkrtos_real\mkrtos_sdk\Debug\libmkrtos_sdk.a(vsprintf.o)
                0x0002170c                vsprintf
 .text.sgetc    0x0002171e       0x12 D:\Project\MyProject1\mkrtos_real\mkrtos_sdk\Debug\libmkrtos_sdk.a(vsscanf.o)
 .text.sputc    0x00021730       0x14 D:\Project\MyProject1\mkrtos_real\mkrtos_sdk\Debug\libmkrtos_sdk.a(vsscanf.o)
 .text.vsscanf  0x00021744       0x30 D:\Project\MyProject1\mkrtos_real\mkrtos_sdk\Debug\libmkrtos_sdk.a(vsscanf.o)
                0x00021744                vsscanf
 .text.find_in_auxvec
                0x00021774       0x14 D:\Project\MyProject1\mkrtos_real\mkrtos_sdk\Debug\libmkrtos_sdk.a(stackgap-g.o)
 .text.__setup_tls
                0x00021788       0x20 D:\Project\MyProject1\mkrtos_real\mkrtos_sdk\Debug\libmkrtos_sdk.a(stackgap-g.o)
                0x00021788                __setup_tls
 .text.stackgap
                0x000217a8      0x1cc D:\Project\MyProject1\mkrtos_real\mkrtos_sdk\Debug\libmkrtos_sdk.a(stackgap-g.o)
                0x000217a8                stackgap
 .text.gmtime_r
                0x00021974       0xa8 D:\Project\MyProject1\mkrtos_real\mkrtos_sdk\Debug\libmkrtos_sdk.a(gmtime_r.o)
                0x00021974                gmtime_r
 .text.__isleap
                0x00021a1c       0x2c D:\Project\MyProject1\mkrtos_real\mkrtos_sdk\Debug\libmkrtos_sdk.a(isleap.o)
                0x00021a1c                __isleap
 .text.__stdio_parse_mode
                0x00021a48       0x3e D:\Project\MyProject1\mkrtos_real\mkrtos_sdk\Debug\libmkrtos_sdk.a(fdglue.o)
                0x00021a48                __stdio_parse_mode
 *fill*         0x00021a86        0x2 
 .text.__stdio_init_file
                0x00021a88       0xcc D:\Project\MyProject1\mkrtos_real\mkrtos_sdk\Debug\libmkrtos_sdk.a(fdglue2.o)
                0x00021a88                __stdio_init_file_nothreads
                0x00021a88                __stdio_init_file
 .text.fgetc_unlocked
                0x00021b54       0x7e D:\Project\MyProject1\mkrtos_real\mkrtos_sdk\Debug\libmkrtos_sdk.a(fgetc_unlocked.o)
                0x00021b54                fgetc_unlocked
                0x00021b54                fgetc
 .text.__ltostr
                0x00021bd2       0x5e D:\Project\MyProject1\mkrtos_real\mkrtos_sdk\Debug\libmkrtos_sdk.a(__ltostr.o)
                0x00021bd2                __ltostr
 .text.__v_scanf
                0x00021c30      0x4e2 D:\Project\MyProject1\mkrtos_real\mkrtos_sdk\Debug\libmkrtos_sdk.a(__v_scanf.o)
                0x00021c30                __v_scanf
 .text.isalnum  0x00022112       0x1a D:\Project\MyProject1\mkrtos_real\mkrtos_sdk\Debug\libmkrtos_sdk.a(isalnum.o)
                0x00022112                isalnum
 .text.__isspace_ascii
                0x0002212c       0x16 D:\Project\MyProject1\mkrtos_real\mkrtos_sdk\Debug\libmkrtos_sdk.a(isspace.o)
                0x0002212c                __isspace_ascii
                0x0002212c                isspace
 .text.__isxdigit_ascii
                0x00022142       0x1c D:\Project\MyProject1\mkrtos_real\mkrtos_sdk\Debug\libmkrtos_sdk.a(isxdigit.o)
                0x00022142                __isxdigit_ascii
                0x00022142                isxdigit
 .text.memccpy  0x0002215e       0x1c D:\Project\MyProject1\mkrtos_real\mkrtos_sdk\Debug\libmkrtos_sdk.a(memccpy.o)
                0x0002215e                memccpy
 .text.__sigjmp_save
                0x0002217a       0x24 D:\Project\MyProject1\mkrtos_real\mkrtos_sdk\Debug\libmkrtos_sdk.a(sigjmp.o)
                0x0002217a                __sigjmp_save
 *fill*         0x0002219e        0x2 
 .text.__main   0x000221a0       0x20 D:\Project\MyProject1\mkrtos_real\mkrtos_sdk\Debug\libmkrtos_sdk.a(__main.o)
                0x000221a0                __main
 .text.reloc    0x000221c0       0x84 D:\Project\MyProject1\mkrtos_real\mkrtos_sdk\Debug\libmkrtos_sdk.a(reloc.o)
                0x000221c0                reloc
 .text.feof_unlocked
                0x00022244       0x12 D:\Project\MyProject1\mkrtos_real\mkrtos_sdk\Debug\libmkrtos_sdk.a(feof.o)
                0x00022244                feof_unlocked
                0x00022244                feof
 *(.init)
 *(.fini)
 *crtbegin.o(.ctors)
 *crtbegin?.o(.ctors)
 *(EXCLUDE_FILE(*crtend.o *crtend?.o) .ctors)
 *(SORT(.ctors.*))
 *(.ctors)
 *crtbegin.o(.dtors)
 *crtbegin?.o(.dtors)
 *(EXCLUDE_FILE(*crtend.o *crtend?.o) .dtors)
 *(SORT(.dtors.*))
 *(.dtors)
 *(SORT(.rodata.*))
 .rodata.CSWTCH.1718
                0x00022256       0x61 ./src/tcc/tcc.o
 .rodata.CSWTCH.1723
                0x000222b7        0x3 ./src/tcc/tcc.o
 .rodata.CSWTCH.2165
                0x000222ba       0x15 ./src/tcc/tcc.o
 .rodata.CSWTCH.2166
                0x000222cf       0x15 ./src/tcc/tcc.o
 .rodata.__FUNCTION__.14042
                0x000222e4        0xc ./src/tcc/tcc.o
 .rodata.__FUNCTION__.18098
                0x000222f0       0x12 ./src/tcc/tcc.o
 .rodata.__spm  0x00022302       0x1a D:\Project\MyProject1\mkrtos_real\mkrtos_sdk\Debug\libmkrtos_sdk.a(time_table_spd.o)
                0x00022302                __spm
 .rodata.__sys_err_unknown
                0x0002231c       0x10 D:\Project\MyProject1\mkrtos_real\mkrtos_sdk\Debug\libmkrtos_sdk.a(errlistu.o)
                0x0002231c                __sys_err_unknown
 .rodata.ab_month_name
                0x0002232c       0x30 ./src/tcc/tcc.o
 .rodata.arhdr_init.18842
                0x0002235c       0x3c ./src/tcc/tcc.o
 .rodata.arm_attr.16143
                0x00022398       0x2d ./src/tcc/tcc.o
 .rodata.dwarf_abbrev_init
                0x000223c5      0x125 ./src/tcc/tcc.o
 .rodata.dwarf_line_opcodes
                0x000224ea        0xc ./src/tcc/tcc.o
 .rodata.help   0x000224f6      0x87a ./src/tcc/tcc.o
 .rodata.help2  0x00022d70      0xa30 ./src/tcc/tcc.o
 .rodata.pad_line
                0x000237a0       0x20 D:\Project\MyProject1\mkrtos_real\mkrtos_sdk\Debug\libmkrtos_sdk.a(__v_printf.o)
 .rodata.rdata  0x000237c0        0x9 ./src/tcc/tcc.o
 *fill*         0x000237c9        0x3 
 .rodata.reg_classes
                0x000237cc       0x34 ./src/tcc/tcc.o
 .rodata.reg_saved.18114
                0x00023800        0x8 ./src/tcc/tcc.o
 .rodata.str1.1
                0x00023808     0x3d75 ./src/tcc/tcc.o
                               0x3f46 (size before relaxing)
 .rodata.str1.1
                0x0002757d       0x13 D:\Project\MyProject1\mkrtos_real\mkrtos_sdk\Debug\libmkrtos_sdk.a(tzfile.o)
 .rodata.str1.1
                0x00027590        0x7 D:\Project\MyProject1\mkrtos_real\mkrtos_sdk\Debug\libmkrtos_sdk.a(__v_printf.o)
 .rodata.str1.1
                0x00027597       0x14 D:\Project\MyProject1\mkrtos_real\mkrtos_sdk\Debug\libmkrtos_sdk.a(stackgap-g.o)
 .rodata.tcc_keywords
                0x000275ab     0x5ee6 ./src/tcc/tcc.o
 .rodata.tok_two_chars
                0x0002d491       0x43 ./src/tcc/tcc.o
 .rodata.version
                0x0002d4d4       0x27 ./src/tcc/tcc.o
 *(.rodata)
 .rodata        0x0002d4fb       0x86 ./src/tcc/tcc.o
 *(.eh_frame*)
                0x0002d584                . = ALIGN (0x4)
 *fill*         0x0002d581        0x3 
                0x0002d584                __rel_start__ = .
 *(.rel.data .rel.data.* .rel.gnu.linkonce.d.*)
 .rel.data.rel.ro.local.options_W
                0x0002d584       0x30 ./src/tcc/tcc.o
 .rel.data.rel.ro.local.options_f
                0x0002d5b4       0x38 ./src/tcc/tcc.o
 .rel.data.rel.ro.local.libs.18524
                0x0002d5ec       0x10 ./src/tcc/tcc.o
 .rel.data.rel.ro.local.options_m
                0x0002d5fc        0x8 ./src/tcc/tcc.o
 .rel.data.rel.ro.local.tcc_options
                0x0002d604      0x1c8 ./src/tcc/tcc.o
 .rel.data.rel.ro.local.templates.13651
                0x0002d7cc       0x80 ./src/tcc/tcc.o
 .rel.data.rel.ro.local.default_debug
                0x0002d84c       0xd8 ./src/tcc/tcc.o
 .rel.data.rel.local.tzname
                0x0002d924       0x10 ./src/tcc/tcc.o
 .rel.data.rel.local.stderr
                0x0002d934        0x8 ./src/tcc/tcc.o
 .rel.data.rel.local.__stdin
                0x00000000        0x0 ./src/tcc/tcc.o
 .rel.data.rel.local.stdin
                0x00000000        0x0 ./src/tcc/tcc.o
 .rel.data.rel.local.__stdout
                0x0002d93c        0x8 ./src/tcc/tcc.o
 .rel.data.rel.local.stdout
                0x0002d944        0x8 ./src/tcc/tcc.o
                0x0002d94c                __rel_end__ = .

.interp         0x0002d94c       0x11
 .interp        0x0002d94c       0x11 ./src/tcc/tcc.o

.gnu.version_d  0x0002d960        0x0
 .gnu.version_d
                0x00000000        0x0 ./src/tcc/tcc.o

.gnu.version    0x0002d95e        0x0
 .gnu.version   0x00000000        0x0 ./src/tcc/tcc.o

.gnu.version_r  0x0002d960        0x0
 .gnu.version_r
                0x00000000        0x0 ./src/tcc/tcc.o

.dynsym         0x0002d960      0x300
 .dynsym        0x0002d960      0x300 ./src/tcc/tcc.o

.dynstr         0x0002dc60      0x260
 .dynstr        0x0002dc60      0x260 ./src/tcc/tcc.o

.hash           0x0002dec0      0x15c
 .hash          0x0002dec0      0x15c ./src/tcc/tcc.o

.glue_7         0x0002e01c        0x0
 .glue_7        0x00000000        0x0 linker stubs

.glue_7t        0x0002e01c        0x0
 .glue_7t       0x00000000        0x0 linker stubs

.vfp11_veneer   0x0002e01c        0x0
 .vfp11_veneer  0x00000000        0x0 linker stubs

.v4_bx          0x0002e01c        0x0
 .v4_bx         0x00000000        0x0 linker stubs

.plt            0x0002e01c        0x0
 .plt           0x00000000        0x0 ./src/tcc/tcc.o

.iplt           0x0002e01c        0x0
 .iplt          0x00000000        0x0 ./src/tcc/tcc.o

.ARM.exidx      0x0002e01c        0x8
                0x0002e01c                . = ALIGN (0x4)
                0x0002e01c                __exdix_start = .
 *(.ARM.exidx* .gnu.linkonce.armexidx.*)
 .ARM.exidx     0x0002e01c        0x8 D:\Program Files (x86)\GNU Tools ARM Embedded\4.9 2014q4\lib\gcc\arm-none-eabi\4.9.3\armv7-m\libgcc.a(_divdi3.o)
 .ARM.exidx     0x0002e024        0x0 D:\Program Files (x86)\GNU Tools ARM Embedded\4.9 2014q4\lib\gcc\arm-none-eabi\4.9.3\armv7-m\libgcc.a(_udivdi3.o)
                                  0x8 (size before relaxing)
                0x0002e024                __exdix_end = .

.rel.dyn        0x0002e024     0x1a30
 .rel.got       0x0002e024     0x1a28 ./src/tcc/tcc.o
 .rel.plt       0x00000000        0x0 ./src/tcc/tcc.o
 .rel.iplt      0x00000000        0x0 ./src/tcc/tcc.o
 .rel.text      0x0002fa4c        0x8 ./src/tcc/tcc.o

.permissions_table
                0x0002fa54        0x0
                0x0002fa54                . = ALIGN (0x4)
                0x0002fa54                __permissions_table_start__ = .
 *(.permissions_table)
                0x0002fa54                __permissions_table_end__ = .
                0x000145a4                PROVIDE (__ram_size__, (__bss_end__ - __data_start__))

.data           0x0002fa54     0x11ec
                0x0002fa54                . = ALIGN (0x4)
                0x0002fa54                __data_start__ = .
                0x0002fa54                __got_start__ = .
 *(.got)
 .got           0x0002fa54      0xd14 ./src/tcc/tcc.o
                0x00030768                __got_end__ = .
                0x00030768                . = ALIGN (0x4)
 *(.data)
 .data          0x00030768        0x4 D:\Project\MyProject1\mkrtos_real\mkrtos_sdk\Debug\libmkrtos_sdk.a(dyn_syscalls.o)
                0x00030768                __guard
                0x00030768                __stack_chk_guard
 *(.data.*)
 .data.rel.ro.local.options_W
                0x0003076c       0x38 ./src/tcc/tcc.o
 .data.rel.ro.local.options_f
                0x000307a4       0x40 ./src/tcc/tcc.o
 .data.rel.ro.local.libs.18524
                0x000307e4        0xc ./src/tcc/tcc.o
 .data.rel.ro.local.options_m
                0x000307f0       0x10 ./src/tcc/tcc.o
 .data.rel.ro.local.tcc_options
                0x00030800      0x1d0 ./src/tcc/tcc.o
 .data.rel.ro.local.templates.13651
                0x000309d0       0x40 ./src/tcc/tcc.o
 .data.rel.ro.local.default_debug
                0x00030a10      0x1b0 ./src/tcc/tcc.o
 .data.tzlen    0x00030bc0        0x4 D:\Project\MyProject1\mkrtos_real\mkrtos_sdk\Debug\libmkrtos_sdk.a(tzfile.o)
 .data.rel.local.tzname
                0x00030bc4        0x8 D:\Project\MyProject1\mkrtos_real\mkrtos_sdk\Debug\libmkrtos_sdk.a(tzfile.o)
                0x00030bc4                tzname
 .data.__stderr
                0x00030bcc       0x34 D:\Project\MyProject1\mkrtos_real\mkrtos_sdk\Debug\libmkrtos_sdk.a(stderr.o)
 .data.rel.local.stderr
                0x00030c00        0x4 D:\Project\MyProject1\mkrtos_real\mkrtos_sdk\Debug\libmkrtos_sdk.a(stderr.o)
                0x00030c00                stderr
 .data.rel.local.__stdout
                0x00030c04       0x34 D:\Project\MyProject1\mkrtos_real\mkrtos_sdk\Debug\libmkrtos_sdk.a(stdout.o)
 .data.rel.local.stdout
                0x00030c38        0x4 D:\Project\MyProject1\mkrtos_real\mkrtos_sdk\Debug\libmkrtos_sdk.a(stdout.o)
                0x00030c38                stdout
 .data.seed     0x00030c3c        0x4 D:\Project\MyProject1\mkrtos_real\mkrtos_sdk\Debug\libmkrtos_sdk.a(rand.o)
 *(vtable)
 *(.data*)
                0x00030c40                . = ALIGN (0x4)
                0x00030c40                PROVIDE (__preinit_array_start, .)
 *(.preinit_array)
                0x00030c40                PROVIDE (__preinit_array_end, .)
                0x00030c40                . = ALIGN (0x4)
                0x00030c40                PROVIDE (__init_array_start, .)
 *(SORT(.init_array.*))
 *(.init_array)
                0x00030c40                PROVIDE (__init_array_end, .)
                0x00030c40                . = ALIGN (0x4)
                0x00030c40                PROVIDE (__fini_array_start, .)
 *(SORT(.fini_array.*))
 *(.fini_array)
                0x00030c40                PROVIDE (__fini_array_end, .)
                0x00030c40                . = ALIGN (0x4)
                0x00030c40                __data_end__ = .
                0x00000000                PROVIDE (__heap_size__, (__heap_end__ - __heap_start__))
                0x00000000                PROVIDE (__stack_size__, (__stack_end__ - __stack_start__))

.dynamic        0x00030c40       0x80
 .dynamic       0x00030c40       0x80 ./src/tcc/tcc.o
                0x00030c40                _DYNAMIC

.got.plt        0x00030cc0        0xc
 .got.plt       0x00030cc0        0xc ./src/tcc/tcc.o
                0x00030cc0                _GLOBAL_OFFSET_TABLE_

.igot.plt       0x00030ccc        0x0
 .igot.plt      0x00000000        0x0 ./src/tcc/tcc.o

.bss            0x00030d00    0x132f8
                0x00030d00                . = ALIGN (0x4)
                0x00030d00                __bss_start__ = .
 *(.bss)
 .bss           0x00030d00      0x200 D:\Project\MyProject1\mkrtos_real\mkrtos_sdk\Debug\libmkrtos_sdk.a(dyn_syscalls.o)
                0x00030d00                __environ
                0x00030d00                environ
                0x00030e00                errno
 *(COMMON)
 COMMON         0x00030f00        0x1 ./src/tcc/tcc.o
                0x00030f00                float_abi
 *fill*         0x00030f01        0x3 
 COMMON         0x00030f04        0x4 D:\Project\MyProject1\mkrtos_real\mkrtos_sdk\Debug\libmkrtos_sdk.a(fflush.o)
                0x00030f04                __stdio_root
 COMMON         0x00030f08       0x1c D:\Project\MyProject1\mkrtos_real\mkrtos_sdk\Debug\libmkrtos_sdk.a(stackgap-g.o)
                0x00030f08                __tdataptr
                0x00030f0c                __tdatasize
                0x00030f10                __tcb_mainthread
                0x00030f14                __vdso
                0x00030f18                program_invocation_short_name
                0x00030f1c                __tmemsize
                0x00030f20                program_invocation_name
 COMMON         0x00030f24        0x8 D:\Project\MyProject1\mkrtos_real\mkrtos_sdk\Debug\libmkrtos_sdk.a(timezone.o)
                0x00030f24                daylight
                0x00030f28                timezone
                0x00030f2c                . = ALIGN (0x4)
                0x00030f2c                __heap_start__ = .
 *(.bss.heap)
                0x00030f2c                __heap_end__ = .
                0x00030f2c                . = ALIGN (0x4)
                0x00030f2c                __stack_start__ = .
 *(.bss.stack)
                0x00030f2c                __stack_end__ = .
 *(.bss.*)
 .bss.macro_ptr
                0x00030f2c        0x4 ./src/tcc/tcc.o
 .bss.sym_pools
                0x00030f30        0x4 ./src/tcc/tcc.o
 .bss.root_scope
                0x00030f34        0x4 ./src/tcc/tcc.o
 .bss.func_bound_add_epilog
                0x00030f38        0x4 ./src/tcc/tcc.o
 .bss.pp_debug_tok
                0x00030f3c        0x4 ./src/tcc/tcc.o
 .bss.rsym      0x00030f40        0x4 ./src/tcc/tcc.o
 .bss.prec      0x00030f44      0x100 ./src/tcc/tcc.o
 .bss.tokstr_alloc
                0x00031044        0x4 ./src/tcc/tcc.o
 .bss.isidnum_table
                0x00031048      0x101 ./src/tcc/tcc.o
 *fill*         0x00031149        0x3 
 .bss.nb_temp_local_vars
                0x0003114c        0x4 ./src/tcc/tcc.o
 .bss.func_float_type
                0x00031150        0x8 ./src/tcc/tcc.o
 .bss.char_type
                0x00031158        0x8 ./src/tcc/tcc.o
 .bss.tokc      0x00031160        0x8 ./src/tcc/tcc.o
 .bss.local_scope
                0x00031168        0x4 ./src/tcc/tcc.o
 .bss.char_pointer_type
                0x0003116c        0x8 ./src/tcc/tcc.o
 .bss.func_bound_offset
                0x00031174        0x4 ./src/tcc/tcc.o
 .bss.func_ind  0x00031178        0x4 ./src/tcc/tcc.o
 .bss.leaffunc  0x0003117c        0x4 ./src/tcc/tcc.o
 .bss.func_vc   0x00031180        0x4 ./src/tcc/tcc.o
 .bss.arr_temp_local_vars
                0x00031184       0x40 ./src/tcc/tcc.o
 .bss.initstr   0x000311c4        0xc ./src/tcc/tcc.o
 .bss.double_type
                0x000311d0        0x8 ./src/tcc/tcc.o
 .bss.pp_debug_symv
                0x000311d8        0x4 ./src/tcc/tcc.o
 .bss.func_vt   0x000311dc        0x8 ./src/tcc/tcc.o
 .bss.funcname  0x000311e4        0x4 ./src/tcc/tcc.o
 .bss.pending_gotos
                0x000311e8        0x4 ./src/tcc/tcc.o
 .bss.float_type
                0x000311ec        0x8 ./src/tcc/tcc.o
 .bss.func_double_type
                0x000311f4        0x8 ./src/tcc/tcc.o
 .bss.tokcstr   0x000311fc        0xc ./src/tcc/tcc.o
 .bss.const_wanted
                0x00031208        0x4 ./src/tcc/tcc.o
 .bss.tok       0x0003120c        0x4 ./src/tcc/tcc.o
 .bss.anon_sym  0x00031210        0x4 ./src/tcc/tcc.o
 .bss.vtop      0x00031214        0x4 ./src/tcc/tcc.o
 .bss.tcc_state
                0x00031218        0x4 ./src/tcc/tcc.o
 .bss.last_itod_magic
                0x0003121c        0x4 ./src/tcc/tcc.o
 .bss.in_sizeof
                0x00031220        0x4 ./src/tcc/tcc.o
 .bss.loop_scope
                0x00031224        0x4 ./src/tcc/tcc.o
 .bss.pp_expr   0x00031228        0x4 ./src/tcc/tcc.o
 .bss.local_stack
                0x0003122c        0x4 ./src/tcc/tcc.o
 .bss.token_buf
                0x00031230      0x401 ./src/tcc/tcc.o
 *fill*         0x00031631        0x3 
 .bss.macro_stack
                0x00031634        0x4 ./src/tcc/tcc.o
 .bss.last_text_section
                0x00031638        0x4 ./src/tcc/tcc.o
 .bss.func_bound_ind
                0x0003163c        0x4 ./src/tcc/tcc.o
 .bss.pp_counter
                0x00031640        0x4 ./src/tcc/tcc.o
 .bss.tok_flags
                0x00031644        0x4 ./src/tcc/tcc.o
 .bss.cstr_buf  0x00031648        0xc ./src/tcc/tcc.o
 .bss.parse_flags
                0x00031654        0x4 ./src/tcc/tcc.o
 .bss.sym_free_first
                0x00031658        0x4 ./src/tcc/tcc.o
 .bss.macro_equal_buf
                0x0003165c        0xc ./src/tcc/tcc.o
 .bss.global_label_stack
                0x00031668        0x4 ./src/tcc/tcc.o
 .bss.int_type  0x0003166c        0x8 ./src/tcc/tcc.o
 .bss.loc       0x00031674        0x4 ./src/tcc/tcc.o
 .bss.cur_switch
                0x00031678        0x4 ./src/tcc/tcc.o
 .bss.table_ident
                0x0003167c        0x4 ./src/tcc/tcc.o
 .bss.global_expr
                0x00031680        0x4 ./src/tcc/tcc.o
 .bss.file      0x00031684        0x4 ./src/tcc/tcc.o
 .bss.pp_once   0x00031688        0x4 ./src/tcc/tcc.o
 .bss.asmgoto_n
                0x0003168c        0x4 ./src/tcc/tcc.o
 .bss.ind       0x00031690        0x4 ./src/tcc/tcc.o
 .bss.tokstr_buf
                0x00031694       0x24 ./src/tcc/tcc.o
 .bss.cur_scope
                0x000316b8        0x4 ./src/tcc/tcc.o
 .bss.local_label_stack
                0x000316bc        0x4 ./src/tcc/tcc.o
 .bss._vstack   0x000316c0     0x2020 ./src/tcc/tcc.o
 .bss.all_cleanups
                0x000336e0        0x4 ./src/tcc/tcc.o
 .bss.func_old_type
                0x000336e4        0x8 ./src/tcc/tcc.o
 .bss.toksym_alloc
                0x000336ec        0x4 ./src/tcc/tcc.o
 .bss.func_sub_sp_offset
                0x000336f0        0x4 ./src/tcc/tcc.o
 .bss.define_stack
                0x000336f4        0x4 ./src/tcc/tcc.o
 .bss.hash_ident
                0x000336f8    0x10000 ./src/tcc/tcc.o
 .bss.nocode_wanted
                0x000436f8        0x4 ./src/tcc/tcc.o
 .bss.func_var  0x000436fc        0x4 ./src/tcc/tcc.o
 .bss.global_stack
                0x00043700        0x4 ./src/tcc/tcc.o
 .bss.tok_ident
                0x00043704        0x4 ./src/tcc/tcc.o
 .bss.debug_modes
                0x00043708        0x1 ./src/tcc/tcc.o
 *fill*         0x00043709        0x3 
 .bss.nb_sym_pools
                0x0004370c        0x4 ./src/tcc/tcc.o
 .bss.tmp.4531  0x00043710       0x2c D:\Project\MyProject1\mkrtos_real\mkrtos_sdk\Debug\libmkrtos_sdk.a(localtime.o)
 .bss.tzfile    0x0004373c        0x4 D:\Project\MyProject1\mkrtos_real\mkrtos_sdk\Debug\libmkrtos_sdk.a(tzfile.o)
 .bss.__stdio_atexit
                0x00043740        0x4 D:\Project\MyProject1\mkrtos_real\mkrtos_sdk\Debug\libmkrtos_sdk.a(fflush.o)
                0x00043740                __stdio_atexit
 .bss.iknow.5167
                0x00043744        0x4 D:\Project\MyProject1\mkrtos_real\mkrtos_sdk\Debug\libmkrtos_sdk.a(stdin.o)
 .bss.__stdout_buf
                0x00043748      0x800 D:\Project\MyProject1\mkrtos_real\mkrtos_sdk\Debug\libmkrtos_sdk.a(stdout.o)
 .bss.__small_mem
                0x00043f48       0x20 D:\Project\MyProject1\mkrtos_real\mkrtos_sdk\Debug\libmkrtos_sdk.a(alloc.o)
 .bss.atexit_counter
                0x00043f68        0x4 D:\Project\MyProject1\mkrtos_real\mkrtos_sdk\Debug\libmkrtos_sdk.a(atexit.o)
 .bss.__atexitlist
                0x00043f6c       0x80 D:\Project\MyProject1\mkrtos_real\mkrtos_sdk\Debug\libmkrtos_sdk.a(atexit.o)
 .bss._auxvec   0x00043fec        0x4 D:\Project\MyProject1\mkrtos_real\mkrtos_sdk\Debug\libmkrtos_sdk.a(stackgap-g.o)
 .bss.__valgrind
                0x00043ff0        0x4 D:\Project\MyProject1\mkrtos_real\mkrtos_sdk\Debug\libmkrtos_sdk.a(stackgap-g.o)
                0x00043ff0                __valgrind
 .bss.__app_start_addr__
                0x00043ff4        0x4 D:\Project\MyProject1\mkrtos_real\mkrtos_sdk\Debug\libmkrtos_sdk.a(__main.o)
                0x00043ff4                __app_start_addr__
                0x00043ff8                . = ALIGN (0x4)
                0x00043ff8                __bss_end__ = .
                0x00043ff8                _end = .
OUTPUT(mkrtos_tcc.elf elf32-littlearm)

.dynbss         0x00043ff8        0x0
 .dynbss        0x00000000        0x0 ./src/tcc/tcc.o

.debug_info     0x00000000    0x3dad8
 .debug_info    0x00000000    0x345d6 ./src/tcc/tcc.o
 .debug_info    0x000345d6      0x197 D:\Project\MyProject1\mkrtos_real\mkrtos_sdk\Debug\libmkrtos_sdk.a(localtime.o)
 .debug_info    0x0003476d      0x1ed D:\Project\MyProject1\mkrtos_real\mkrtos_sdk\Debug\libmkrtos_sdk.a(localtime_r.o)
 .debug_info    0x0003495a      0x49f D:\Project\MyProject1\mkrtos_real\mkrtos_sdk\Debug\libmkrtos_sdk.a(tzfile.o)
 .debug_info    0x00034df9      0x284 D:\Project\MyProject1\mkrtos_real\mkrtos_sdk\Debug\libmkrtos_sdk.a(fclose.o)
 .debug_info    0x0003507d      0x285 D:\Project\MyProject1\mkrtos_real\mkrtos_sdk\Debug\libmkrtos_sdk.a(fdopen.o)
 .debug_info    0x00035302      0x457 D:\Project\MyProject1\mkrtos_real\mkrtos_sdk\Debug\libmkrtos_sdk.a(fflush.o)
 .debug_info    0x00035759      0x2a5 D:\Project\MyProject1\mkrtos_real\mkrtos_sdk\Debug\libmkrtos_sdk.a(fopen.o)
 .debug_info    0x000359fe      0x147 D:\Project\MyProject1\mkrtos_real\mkrtos_sdk\Debug\libmkrtos_sdk.a(fprintf.o)
 .debug_info    0x00035b45      0x2b5 D:\Project\MyProject1\mkrtos_real\mkrtos_sdk\Debug\libmkrtos_sdk.a(fputc_unlocked.o)
 .debug_info    0x00035dfa      0x270 D:\Project\MyProject1\mkrtos_real\mkrtos_sdk\Debug\libmkrtos_sdk.a(fputs.o)
 .debug_info    0x0003606a      0x379 D:\Project\MyProject1\mkrtos_real\mkrtos_sdk\Debug\libmkrtos_sdk.a(fread.o)
 .debug_info    0x000363e3      0x263 D:\Project\MyProject1\mkrtos_real\mkrtos_sdk\Debug\libmkrtos_sdk.a(fseek.o)
 .debug_info    0x00036646      0x222 D:\Project\MyProject1\mkrtos_real\mkrtos_sdk\Debug\libmkrtos_sdk.a(ftell.o)
 .debug_info    0x00036868      0x3fc D:\Project\MyProject1\mkrtos_real\mkrtos_sdk\Debug\libmkrtos_sdk.a(fwrite.o)
 .debug_info    0x00036c64      0x118 D:\Project\MyProject1\mkrtos_real\mkrtos_sdk\Debug\libmkrtos_sdk.a(printf.o)
 .debug_info    0x00036d7c      0x228 D:\Project\MyProject1\mkrtos_real\mkrtos_sdk\Debug\libmkrtos_sdk.a(stderr.o)
 .debug_info    0x00036fa4      0x293 D:\Project\MyProject1\mkrtos_real\mkrtos_sdk\Debug\libmkrtos_sdk.a(stdin.o)
 .debug_info    0x00037237      0x24a D:\Project\MyProject1\mkrtos_real\mkrtos_sdk\Debug\libmkrtos_sdk.a(stdout.o)
 .debug_info    0x00037481      0x35b D:\Project\MyProject1\mkrtos_real\mkrtos_sdk\Debug\libmkrtos_sdk.a(vfprintf.o)
 .debug_info    0x000377dc      0x20b D:\Project\MyProject1\mkrtos_real\mkrtos_sdk\Debug\libmkrtos_sdk.a(vprintf.o)
 .debug_info    0x000379e7      0x125 D:\Project\MyProject1\mkrtos_real\mkrtos_sdk\Debug\libmkrtos_sdk.a(__getcwd.o)
 .debug_info    0x00037b0c      0x18a D:\Project\MyProject1\mkrtos_real\mkrtos_sdk\Debug\libmkrtos_sdk.a(__mmap.o)
 .debug_info    0x00037c96      0x14f D:\Project\MyProject1\mkrtos_real\mkrtos_sdk\Debug\libmkrtos_sdk.a(__time.o)
 .debug_info    0x00037de5      0x631 D:\Project\MyProject1\mkrtos_real\mkrtos_sdk\Debug\libmkrtos_sdk.a(__v_printf.o)
 .debug_info    0x00038416      0x6b5 D:\Project\MyProject1\mkrtos_real\mkrtos_sdk\Debug\libmkrtos_sdk.a(alloc.o)
 .debug_info    0x00038acb      0x157 D:\Project\MyProject1\mkrtos_real\mkrtos_sdk\Debug\libmkrtos_sdk.a(atexit.o)
 .debug_info    0x00038c22       0xc8 D:\Project\MyProject1\mkrtos_real\mkrtos_sdk\Debug\libmkrtos_sdk.a(atol.o)
 .debug_info    0x00038cea       0xa7 D:\Project\MyProject1\mkrtos_real\mkrtos_sdk\Debug\libmkrtos_sdk.a(errno_location.o)
 .debug_info    0x00038d91      0x155 D:\Project\MyProject1\mkrtos_real\mkrtos_sdk\Debug\libmkrtos_sdk.a(getenv.o)
 .debug_info    0x00038ee6       0xaa D:\Project\MyProject1\mkrtos_real\mkrtos_sdk\Debug\libmkrtos_sdk.a(htonl.o)
 .debug_info    0x00038f90      0x1ae D:\Project\MyProject1\mkrtos_real\mkrtos_sdk\Debug\libmkrtos_sdk.a(isatty.o)
 .debug_info    0x0003913e      0x1aa D:\Project\MyProject1\mkrtos_real\mkrtos_sdk\Debug\libmkrtos_sdk.a(longjmp.o)
 .debug_info    0x000392e8       0xf5 D:\Project\MyProject1\mkrtos_real\mkrtos_sdk\Debug\libmkrtos_sdk.a(memcmp.o)
 .debug_info    0x000393dd      0x13e D:\Project\MyProject1\mkrtos_real\mkrtos_sdk\Debug\libmkrtos_sdk.a(memcpy.o)
 .debug_info    0x0003951b       0xf7 D:\Project\MyProject1\mkrtos_real\mkrtos_sdk\Debug\libmkrtos_sdk.a(memmove.o)
 .debug_info    0x00039612       0xd4 D:\Project\MyProject1\mkrtos_real\mkrtos_sdk\Debug\libmkrtos_sdk.a(memset.o)
 .debug_info    0x000396e6      0x3fb D:\Project\MyProject1\mkrtos_real\mkrtos_sdk\Debug\libmkrtos_sdk.a(qsort.o)
 .debug_info    0x00039ae1       0xed D:\Project\MyProject1\mkrtos_real\mkrtos_sdk\Debug\libmkrtos_sdk.a(rand.o)
 .debug_info    0x00039bce       0xba D:\Project\MyProject1\mkrtos_real\mkrtos_sdk\Debug\libmkrtos_sdk.a(rand_r.o)
 .debug_info    0x00039c88      0x114 D:\Project\MyProject1\mkrtos_real\mkrtos_sdk\Debug\libmkrtos_sdk.a(remove.o)
 .debug_info    0x00039d9c      0x149 D:\Project\MyProject1\mkrtos_real\mkrtos_sdk\Debug\libmkrtos_sdk.a(sigprocmask.o)
 .debug_info    0x00039ee5      0x158 D:\Project\MyProject1\mkrtos_real\mkrtos_sdk\Debug\libmkrtos_sdk.a(snprintf.o)
 .debug_info    0x0003a03d      0x139 D:\Project\MyProject1\mkrtos_real\mkrtos_sdk\Debug\libmkrtos_sdk.a(sprintf.o)
 .debug_info    0x0003a176      0x12c D:\Project\MyProject1\mkrtos_real\mkrtos_sdk\Debug\libmkrtos_sdk.a(sscanf.o)
 .debug_info    0x0003a2a2       0xc4 D:\Project\MyProject1\mkrtos_real\mkrtos_sdk\Debug\libmkrtos_sdk.a(strchr.o)
 .debug_info    0x0003a366      0x145 D:\Project\MyProject1\mkrtos_real\mkrtos_sdk\Debug\libmkrtos_sdk.a(strcmp.o)
 .debug_info    0x0003a4ab       0xf8 D:\Project\MyProject1\mkrtos_real\mkrtos_sdk\Debug\libmkrtos_sdk.a(strcpy.o)
 .debug_info    0x0003a5a3       0xda D:\Project\MyProject1\mkrtos_real\mkrtos_sdk\Debug\libmkrtos_sdk.a(strerror.o)
 .debug_info    0x0003a67d      0x123 D:\Project\MyProject1\mkrtos_real\mkrtos_sdk\Debug\libmkrtos_sdk.a(strlen.o)
 .debug_info    0x0003a7a0      0x113 D:\Project\MyProject1\mkrtos_real\mkrtos_sdk\Debug\libmkrtos_sdk.a(strncmp.o)
 .debug_info    0x0003a8b3      0x124 D:\Project\MyProject1\mkrtos_real\mkrtos_sdk\Debug\libmkrtos_sdk.a(strncpy.o)
 .debug_info    0x0003a9d7       0xd1 D:\Project\MyProject1\mkrtos_real\mkrtos_sdk\Debug\libmkrtos_sdk.a(strrchr.o)
 .debug_info    0x0003aaa8      0x176 D:\Project\MyProject1\mkrtos_real\mkrtos_sdk\Debug\libmkrtos_sdk.a(strstr.o)
 .debug_info    0x0003ac1e      0x1ad D:\Project\MyProject1\mkrtos_real\mkrtos_sdk\Debug\libmkrtos_sdk.a(strtol.o)
 .debug_info    0x0003adcb      0x1ad D:\Project\MyProject1\mkrtos_real\mkrtos_sdk\Debug\libmkrtos_sdk.a(strtoll.o)
 .debug_info    0x0003af78      0x1ec D:\Project\MyProject1\mkrtos_real\mkrtos_sdk\Debug\libmkrtos_sdk.a(strtoul.o)
 .debug_info    0x0003b164      0x1ec D:\Project\MyProject1\mkrtos_real\mkrtos_sdk\Debug\libmkrtos_sdk.a(strtoull.o)
 .debug_info    0x0003b350      0x2a5 D:\Project\MyProject1\mkrtos_real\mkrtos_sdk\Debug\libmkrtos_sdk.a(vsnprintf.o)
 .debug_info    0x0003b5f5      0x14d D:\Project\MyProject1\mkrtos_real\mkrtos_sdk\Debug\libmkrtos_sdk.a(vsprintf.o)
 .debug_info    0x0003b742      0x237 D:\Project\MyProject1\mkrtos_real\mkrtos_sdk\Debug\libmkrtos_sdk.a(vsscanf.o)
 .debug_info    0x0003b979       0x83 D:\Project\MyProject1\mkrtos_real\mkrtos_sdk\Debug\libmkrtos_sdk.a(dyn_syscalls.o)
 .debug_info    0x0003b9fc       0x7c D:\Project\MyProject1\mkrtos_real\mkrtos_sdk\Debug\libmkrtos_sdk.a(start.o)
 .debug_info    0x0003ba78      0x6f6 D:\Project\MyProject1\mkrtos_real\mkrtos_sdk\Debug\libmkrtos_sdk.a(stackgap-g.o)
 .debug_info    0x0003c16e       0x6a D:\Project\MyProject1\mkrtos_real\mkrtos_sdk\Debug\libmkrtos_sdk.a(start.o)
 .debug_info    0x0003c1d8      0x1e5 D:\Project\MyProject1\mkrtos_real\mkrtos_sdk\Debug\libmkrtos_sdk.a(gmtime_r.o)
 .debug_info    0x0003c3bd       0x9f D:\Project\MyProject1\mkrtos_real\mkrtos_sdk\Debug\libmkrtos_sdk.a(isleap.o)
 .debug_info    0x0003c45c       0x98 D:\Project\MyProject1\mkrtos_real\mkrtos_sdk\Debug\libmkrtos_sdk.a(time_table_spd.o)
 .debug_info    0x0003c4f4       0x4e D:\Project\MyProject1\mkrtos_real\mkrtos_sdk\Debug\libmkrtos_sdk.a(timezone.o)
 .debug_info    0x0003c542       0xb7 D:\Project\MyProject1\mkrtos_real\mkrtos_sdk\Debug\libmkrtos_sdk.a(fdglue.o)
 .debug_info    0x0003c5f9      0x469 D:\Project\MyProject1\mkrtos_real\mkrtos_sdk\Debug\libmkrtos_sdk.a(fdglue2.o)
 .debug_info    0x0003ca62      0x298 D:\Project\MyProject1\mkrtos_real\mkrtos_sdk\Debug\libmkrtos_sdk.a(fgetc_unlocked.o)
 .debug_info    0x0003ccfa      0x13f D:\Project\MyProject1\mkrtos_real\mkrtos_sdk\Debug\libmkrtos_sdk.a(__ltostr.o)
 .debug_info    0x0003ce39      0x45b D:\Project\MyProject1\mkrtos_real\mkrtos_sdk\Debug\libmkrtos_sdk.a(__v_scanf.o)
 .debug_info    0x0003d294       0x52 D:\Project\MyProject1\mkrtos_real\mkrtos_sdk\Debug\libmkrtos_sdk.a(errlistu.o)
 .debug_info    0x0003d2e6       0x55 D:\Project\MyProject1\mkrtos_real\mkrtos_sdk\Debug\libmkrtos_sdk.a(isalnum.o)
 .debug_info    0x0003d33b       0x55 D:\Project\MyProject1\mkrtos_real\mkrtos_sdk\Debug\libmkrtos_sdk.a(isspace.o)
 .debug_info    0x0003d390       0x55 D:\Project\MyProject1\mkrtos_real\mkrtos_sdk\Debug\libmkrtos_sdk.a(isxdigit.o)
 .debug_info    0x0003d3e5      0x102 D:\Project\MyProject1\mkrtos_real\mkrtos_sdk\Debug\libmkrtos_sdk.a(memccpy.o)
 .debug_info    0x0003d4e7      0x186 D:\Project\MyProject1\mkrtos_real\mkrtos_sdk\Debug\libmkrtos_sdk.a(sigjmp.o)
 .debug_info    0x0003d66d       0x82 D:\Project\MyProject1\mkrtos_real\mkrtos_sdk\Debug\libmkrtos_sdk.a(arm_set_tls.o)
 .debug_info    0x0003d6ef       0xf2 D:\Project\MyProject1\mkrtos_real\mkrtos_sdk\Debug\libmkrtos_sdk.a(__main.o)
 .debug_info    0x0003d7e1      0x117 D:\Project\MyProject1\mkrtos_real\mkrtos_sdk\Debug\libmkrtos_sdk.a(reloc.o)
 .debug_info    0x0003d8f8      0x1e0 D:\Project\MyProject1\mkrtos_real\mkrtos_sdk\Debug\libmkrtos_sdk.a(feof.o)

.debug_abbrev   0x00000000     0x53c8
 .debug_abbrev  0x00000000      0x84f ./src/tcc/tcc.o
 .debug_abbrev  0x0000084f       0xd3 D:\Project\MyProject1\mkrtos_real\mkrtos_sdk\Debug\libmkrtos_sdk.a(localtime.o)
 .debug_abbrev  0x00000922      0x10e D:\Project\MyProject1\mkrtos_real\mkrtos_sdk\Debug\libmkrtos_sdk.a(localtime_r.o)
 .debug_abbrev  0x00000a30      0x1ed D:\Project\MyProject1\mkrtos_real\mkrtos_sdk\Debug\libmkrtos_sdk.a(tzfile.o)
 .debug_abbrev  0x00000c1d      0x131 D:\Project\MyProject1\mkrtos_real\mkrtos_sdk\Debug\libmkrtos_sdk.a(fclose.o)
 .debug_abbrev  0x00000d4e      0x127 D:\Project\MyProject1\mkrtos_real\mkrtos_sdk\Debug\libmkrtos_sdk.a(fdopen.o)
 .debug_abbrev  0x00000e75      0x1a0 D:\Project\MyProject1\mkrtos_real\mkrtos_sdk\Debug\libmkrtos_sdk.a(fflush.o)
 .debug_abbrev  0x00001015      0x11f D:\Project\MyProject1\mkrtos_real\mkrtos_sdk\Debug\libmkrtos_sdk.a(fopen.o)
 .debug_abbrev  0x00001134      0x101 D:\Project\MyProject1\mkrtos_real\mkrtos_sdk\Debug\libmkrtos_sdk.a(fprintf.o)
 .debug_abbrev  0x00001235      0x122 D:\Project\MyProject1\mkrtos_real\mkrtos_sdk\Debug\libmkrtos_sdk.a(fputc_unlocked.o)
 .debug_abbrev  0x00001357      0x11f D:\Project\MyProject1\mkrtos_real\mkrtos_sdk\Debug\libmkrtos_sdk.a(fputs.o)
 .debug_abbrev  0x00001476      0x159 D:\Project\MyProject1\mkrtos_real\mkrtos_sdk\Debug\libmkrtos_sdk.a(fread.o)
 .debug_abbrev  0x000015cf      0x101 D:\Project\MyProject1\mkrtos_real\mkrtos_sdk\Debug\libmkrtos_sdk.a(fseek.o)
 .debug_abbrev  0x000016d0       0xee D:\Project\MyProject1\mkrtos_real\mkrtos_sdk\Debug\libmkrtos_sdk.a(ftell.o)
 .debug_abbrev  0x000017be      0x173 D:\Project\MyProject1\mkrtos_real\mkrtos_sdk\Debug\libmkrtos_sdk.a(fwrite.o)
 .debug_abbrev  0x00001931       0xe9 D:\Project\MyProject1\mkrtos_real\mkrtos_sdk\Debug\libmkrtos_sdk.a(printf.o)
 .debug_abbrev  0x00001a1a       0xfd D:\Project\MyProject1\mkrtos_real\mkrtos_sdk\Debug\libmkrtos_sdk.a(stderr.o)
 .debug_abbrev  0x00001b17      0x12f D:\Project\MyProject1\mkrtos_real\mkrtos_sdk\Debug\libmkrtos_sdk.a(stdin.o)
 .debug_abbrev  0x00001c46      0x10f D:\Project\MyProject1\mkrtos_real\mkrtos_sdk\Debug\libmkrtos_sdk.a(stdout.o)
 .debug_abbrev  0x00001d55      0x152 D:\Project\MyProject1\mkrtos_real\mkrtos_sdk\Debug\libmkrtos_sdk.a(vfprintf.o)
 .debug_abbrev  0x00001ea7      0x114 D:\Project\MyProject1\mkrtos_real\mkrtos_sdk\Debug\libmkrtos_sdk.a(vprintf.o)
 .debug_abbrev  0x00001fbb       0xe5 D:\Project\MyProject1\mkrtos_real\mkrtos_sdk\Debug\libmkrtos_sdk.a(__getcwd.o)
 .debug_abbrev  0x000020a0       0xf5 D:\Project\MyProject1\mkrtos_real\mkrtos_sdk\Debug\libmkrtos_sdk.a(__mmap.o)
 .debug_abbrev  0x00002195       0xcb D:\Project\MyProject1\mkrtos_real\mkrtos_sdk\Debug\libmkrtos_sdk.a(__time.o)
 .debug_abbrev  0x00002260      0x254 D:\Project\MyProject1\mkrtos_real\mkrtos_sdk\Debug\libmkrtos_sdk.a(__v_printf.o)
 .debug_abbrev  0x000024b4      0x285 D:\Project\MyProject1\mkrtos_real\mkrtos_sdk\Debug\libmkrtos_sdk.a(alloc.o)
 .debug_abbrev  0x00002739      0x11a D:\Project\MyProject1\mkrtos_real\mkrtos_sdk\Debug\libmkrtos_sdk.a(atexit.o)
 .debug_abbrev  0x00002853       0x83 D:\Project\MyProject1\mkrtos_real\mkrtos_sdk\Debug\libmkrtos_sdk.a(atol.o)
 .debug_abbrev  0x000028d6       0x5e D:\Project\MyProject1\mkrtos_real\mkrtos_sdk\Debug\libmkrtos_sdk.a(errno_location.o)
 .debug_abbrev  0x00002934       0xd7 D:\Project\MyProject1\mkrtos_real\mkrtos_sdk\Debug\libmkrtos_sdk.a(getenv.o)
 .debug_abbrev  0x00002a0b       0x60 D:\Project\MyProject1\mkrtos_real\mkrtos_sdk\Debug\libmkrtos_sdk.a(htonl.o)
 .debug_abbrev  0x00002a6b      0x10f D:\Project\MyProject1\mkrtos_real\mkrtos_sdk\Debug\libmkrtos_sdk.a(isatty.o)
 .debug_abbrev  0x00002b7a      0x130 D:\Project\MyProject1\mkrtos_real\mkrtos_sdk\Debug\libmkrtos_sdk.a(longjmp.o)
 .debug_abbrev  0x00002caa       0xa4 D:\Project\MyProject1\mkrtos_real\mkrtos_sdk\Debug\libmkrtos_sdk.a(memcmp.o)
 .debug_abbrev  0x00002d4e       0xa9 D:\Project\MyProject1\mkrtos_real\mkrtos_sdk\Debug\libmkrtos_sdk.a(memcpy.o)
 .debug_abbrev  0x00002df7       0xab D:\Project\MyProject1\mkrtos_real\mkrtos_sdk\Debug\libmkrtos_sdk.a(memmove.o)
 .debug_abbrev  0x00002ea2       0x90 D:\Project\MyProject1\mkrtos_real\mkrtos_sdk\Debug\libmkrtos_sdk.a(memset.o)
 .debug_abbrev  0x00002f32      0x141 D:\Project\MyProject1\mkrtos_real\mkrtos_sdk\Debug\libmkrtos_sdk.a(qsort.o)
 .debug_abbrev  0x00003073       0xbd D:\Project\MyProject1\mkrtos_real\mkrtos_sdk\Debug\libmkrtos_sdk.a(rand.o)
 .debug_abbrev  0x00003130       0x7a D:\Project\MyProject1\mkrtos_real\mkrtos_sdk\Debug\libmkrtos_sdk.a(rand_r.o)
 .debug_abbrev  0x000031aa       0xd9 D:\Project\MyProject1\mkrtos_real\mkrtos_sdk\Debug\libmkrtos_sdk.a(remove.o)
 .debug_abbrev  0x00003283       0xe3 D:\Project\MyProject1\mkrtos_real\mkrtos_sdk\Debug\libmkrtos_sdk.a(sigprocmask.o)
 .debug_abbrev  0x00003366      0x107 D:\Project\MyProject1\mkrtos_real\mkrtos_sdk\Debug\libmkrtos_sdk.a(snprintf.o)
 .debug_abbrev  0x0000346d       0xf8 D:\Project\MyProject1\mkrtos_real\mkrtos_sdk\Debug\libmkrtos_sdk.a(sprintf.o)
 .debug_abbrev  0x00003565       0xf8 D:\Project\MyProject1\mkrtos_real\mkrtos_sdk\Debug\libmkrtos_sdk.a(sscanf.o)
 .debug_abbrev  0x0000365d       0x74 D:\Project\MyProject1\mkrtos_real\mkrtos_sdk\Debug\libmkrtos_sdk.a(strchr.o)
 .debug_abbrev  0x000036d1       0x9b D:\Project\MyProject1\mkrtos_real\mkrtos_sdk\Debug\libmkrtos_sdk.a(strcmp.o)
 .debug_abbrev  0x0000376c       0xa1 D:\Project\MyProject1\mkrtos_real\mkrtos_sdk\Debug\libmkrtos_sdk.a(strcpy.o)
 .debug_abbrev  0x0000380d       0x91 D:\Project\MyProject1\mkrtos_real\mkrtos_sdk\Debug\libmkrtos_sdk.a(strerror.o)
 .debug_abbrev  0x0000389e       0xc6 D:\Project\MyProject1\mkrtos_real\mkrtos_sdk\Debug\libmkrtos_sdk.a(strlen.o)
 .debug_abbrev  0x00003964       0x97 D:\Project\MyProject1\mkrtos_real\mkrtos_sdk\Debug\libmkrtos_sdk.a(strncmp.o)
 .debug_abbrev  0x000039fb       0xc0 D:\Project\MyProject1\mkrtos_real\mkrtos_sdk\Debug\libmkrtos_sdk.a(strncpy.o)
 .debug_abbrev  0x00003abb       0x83 D:\Project\MyProject1\mkrtos_real\mkrtos_sdk\Debug\libmkrtos_sdk.a(strrchr.o)
 .debug_abbrev  0x00003b3e       0xd1 D:\Project\MyProject1\mkrtos_real\mkrtos_sdk\Debug\libmkrtos_sdk.a(strstr.o)
 .debug_abbrev  0x00003c0f       0xd6 D:\Project\MyProject1\mkrtos_real\mkrtos_sdk\Debug\libmkrtos_sdk.a(strtol.o)
 .debug_abbrev  0x00003ce5       0xd6 D:\Project\MyProject1\mkrtos_real\mkrtos_sdk\Debug\libmkrtos_sdk.a(strtoll.o)
 .debug_abbrev  0x00003dbb      0x12f D:\Project\MyProject1\mkrtos_real\mkrtos_sdk\Debug\libmkrtos_sdk.a(strtoul.o)
 .debug_abbrev  0x00003eea      0x12f D:\Project\MyProject1\mkrtos_real\mkrtos_sdk\Debug\libmkrtos_sdk.a(strtoull.o)
 .debug_abbrev  0x00004019      0x146 D:\Project\MyProject1\mkrtos_real\mkrtos_sdk\Debug\libmkrtos_sdk.a(vsnprintf.o)
 .debug_abbrev  0x0000415f       0xd6 D:\Project\MyProject1\mkrtos_real\mkrtos_sdk\Debug\libmkrtos_sdk.a(vsprintf.o)
 .debug_abbrev  0x00004235      0x147 D:\Project\MyProject1\mkrtos_real\mkrtos_sdk\Debug\libmkrtos_sdk.a(vsscanf.o)
 .debug_abbrev  0x0000437c       0x14 D:\Project\MyProject1\mkrtos_real\mkrtos_sdk\Debug\libmkrtos_sdk.a(dyn_syscalls.o)
 .debug_abbrev  0x00004390       0x14 D:\Project\MyProject1\mkrtos_real\mkrtos_sdk\Debug\libmkrtos_sdk.a(start.o)
 .debug_abbrev  0x000043a4      0x2ca D:\Project\MyProject1\mkrtos_real\mkrtos_sdk\Debug\libmkrtos_sdk.a(stackgap-g.o)
 .debug_abbrev  0x0000466e       0x14 D:\Project\MyProject1\mkrtos_real\mkrtos_sdk\Debug\libmkrtos_sdk.a(start.o)
 .debug_abbrev  0x00004682      0x118 D:\Project\MyProject1\mkrtos_real\mkrtos_sdk\Debug\libmkrtos_sdk.a(gmtime_r.o)
 .debug_abbrev  0x0000479a       0x53 D:\Project\MyProject1\mkrtos_real\mkrtos_sdk\Debug\libmkrtos_sdk.a(isleap.o)
 .debug_abbrev  0x000047ed       0x50 D:\Project\MyProject1\mkrtos_real\mkrtos_sdk\Debug\libmkrtos_sdk.a(time_table_spd.o)
 .debug_abbrev  0x0000483d       0x37 D:\Project\MyProject1\mkrtos_real\mkrtos_sdk\Debug\libmkrtos_sdk.a(timezone.o)
 .debug_abbrev  0x00004874       0x72 D:\Project\MyProject1\mkrtos_real\mkrtos_sdk\Debug\libmkrtos_sdk.a(fdglue.o)
 .debug_abbrev  0x000048e6      0x1c7 D:\Project\MyProject1\mkrtos_real\mkrtos_sdk\Debug\libmkrtos_sdk.a(fdglue2.o)
 .debug_abbrev  0x00004aad      0x13a D:\Project\MyProject1\mkrtos_real\mkrtos_sdk\Debug\libmkrtos_sdk.a(fgetc_unlocked.o)
 .debug_abbrev  0x00004be7       0xd7 D:\Project\MyProject1\mkrtos_real\mkrtos_sdk\Debug\libmkrtos_sdk.a(__ltostr.o)
 .debug_abbrev  0x00004cbe      0x1cf D:\Project\MyProject1\mkrtos_real\mkrtos_sdk\Debug\libmkrtos_sdk.a(__v_scanf.o)
 .debug_abbrev  0x00004e8d       0x45 D:\Project\MyProject1\mkrtos_real\mkrtos_sdk\Debug\libmkrtos_sdk.a(errlistu.o)
 .debug_abbrev  0x00004ed2       0x4a D:\Project\MyProject1\mkrtos_real\mkrtos_sdk\Debug\libmkrtos_sdk.a(isalnum.o)
 .debug_abbrev  0x00004f1c       0x4a D:\Project\MyProject1\mkrtos_real\mkrtos_sdk\Debug\libmkrtos_sdk.a(isspace.o)
 .debug_abbrev  0x00004f66       0x4a D:\Project\MyProject1\mkrtos_real\mkrtos_sdk\Debug\libmkrtos_sdk.a(isxdigit.o)
 .debug_abbrev  0x00004fb0       0xba D:\Project\MyProject1\mkrtos_real\mkrtos_sdk\Debug\libmkrtos_sdk.a(memccpy.o)
 .debug_abbrev  0x0000506a      0x11c D:\Project\MyProject1\mkrtos_real\mkrtos_sdk\Debug\libmkrtos_sdk.a(sigjmp.o)
 .debug_abbrev  0x00005186       0x14 D:\Project\MyProject1\mkrtos_real\mkrtos_sdk\Debug\libmkrtos_sdk.a(arm_set_tls.o)
 .debug_abbrev  0x0000519a       0xe8 D:\Project\MyProject1\mkrtos_real\mkrtos_sdk\Debug\libmkrtos_sdk.a(__main.o)
 .debug_abbrev  0x00005282       0x98 D:\Project\MyProject1\mkrtos_real\mkrtos_sdk\Debug\libmkrtos_sdk.a(reloc.o)
 .debug_abbrev  0x0000531a       0xae D:\Project\MyProject1\mkrtos_real\mkrtos_sdk\Debug\libmkrtos_sdk.a(feof.o)

.debug_loc      0x00000000    0x2b25d
 .debug_loc     0x00000000    0x26429 ./src/tcc/tcc.o
 .debug_loc     0x00026429       0x21 D:\Project\MyProject1\mkrtos_real\mkrtos_sdk\Debug\libmkrtos_sdk.a(localtime.o)
 .debug_loc     0x0002644a       0x3c D:\Project\MyProject1\mkrtos_real\mkrtos_sdk\Debug\libmkrtos_sdk.a(localtime_r.o)
 .debug_loc     0x00026486      0x341 D:\Project\MyProject1\mkrtos_real\mkrtos_sdk\Debug\libmkrtos_sdk.a(tzfile.o)
 .debug_loc     0x000267c7       0xa9 D:\Project\MyProject1\mkrtos_real\mkrtos_sdk\Debug\libmkrtos_sdk.a(fclose.o)
 .debug_loc     0x00026870       0x98 D:\Project\MyProject1\mkrtos_real\mkrtos_sdk\Debug\libmkrtos_sdk.a(fdopen.o)
 .debug_loc     0x00026908      0x18c D:\Project\MyProject1\mkrtos_real\mkrtos_sdk\Debug\libmkrtos_sdk.a(fflush.o)
 .debug_loc     0x00026a94       0xb6 D:\Project\MyProject1\mkrtos_real\mkrtos_sdk\Debug\libmkrtos_sdk.a(fopen.o)
 .debug_loc     0x00026b4a       0x21 D:\Project\MyProject1\mkrtos_real\mkrtos_sdk\Debug\libmkrtos_sdk.a(fprintf.o)
 .debug_loc     0x00026b6b       0x6b D:\Project\MyProject1\mkrtos_real\mkrtos_sdk\Debug\libmkrtos_sdk.a(fputc_unlocked.o)
 .debug_loc     0x00026bd6       0x6e D:\Project\MyProject1\mkrtos_real\mkrtos_sdk\Debug\libmkrtos_sdk.a(fputs.o)
 .debug_loc     0x00026c44      0x1fe D:\Project\MyProject1\mkrtos_real\mkrtos_sdk\Debug\libmkrtos_sdk.a(fread.o)
 .debug_loc     0x00026e42       0x5a D:\Project\MyProject1\mkrtos_real\mkrtos_sdk\Debug\libmkrtos_sdk.a(fseek.o)
 .debug_loc     0x00026e9c       0x47 D:\Project\MyProject1\mkrtos_real\mkrtos_sdk\Debug\libmkrtos_sdk.a(ftell.o)
 .debug_loc     0x00026ee3      0x1f7 D:\Project\MyProject1\mkrtos_real\mkrtos_sdk\Debug\libmkrtos_sdk.a(fwrite.o)
 .debug_loc     0x000270da       0xe5 D:\Project\MyProject1\mkrtos_real\mkrtos_sdk\Debug\libmkrtos_sdk.a(vfprintf.o)
 .debug_loc     0x000271bf       0xb5 D:\Project\MyProject1\mkrtos_real\mkrtos_sdk\Debug\libmkrtos_sdk.a(vprintf.o)
 .debug_loc     0x00027274       0x92 D:\Project\MyProject1\mkrtos_real\mkrtos_sdk\Debug\libmkrtos_sdk.a(__getcwd.o)
 .debug_loc     0x00027306      0x134 D:\Project\MyProject1\mkrtos_real\mkrtos_sdk\Debug\libmkrtos_sdk.a(__mmap.o)
 .debug_loc     0x0002743a       0x1e D:\Project\MyProject1\mkrtos_real\mkrtos_sdk\Debug\libmkrtos_sdk.a(__time.o)
 .debug_loc     0x00027458      0x866 D:\Project\MyProject1\mkrtos_real\mkrtos_sdk\Debug\libmkrtos_sdk.a(__v_printf.o)
 .debug_loc     0x00027cbe      0x5ca D:\Project\MyProject1\mkrtos_real\mkrtos_sdk\Debug\libmkrtos_sdk.a(alloc.o)
 .debug_loc     0x00028288       0x5b D:\Project\MyProject1\mkrtos_real\mkrtos_sdk\Debug\libmkrtos_sdk.a(atexit.o)
 .debug_loc     0x000282e3       0x8a D:\Project\MyProject1\mkrtos_real\mkrtos_sdk\Debug\libmkrtos_sdk.a(atol.o)
 .debug_loc     0x0002836d       0x81 D:\Project\MyProject1\mkrtos_real\mkrtos_sdk\Debug\libmkrtos_sdk.a(getenv.o)
 .debug_loc     0x000283ee       0x21 D:\Project\MyProject1\mkrtos_real\mkrtos_sdk\Debug\libmkrtos_sdk.a(htonl.o)
 .debug_loc     0x0002840f       0x58 D:\Project\MyProject1\mkrtos_real\mkrtos_sdk\Debug\libmkrtos_sdk.a(isatty.o)
 .debug_loc     0x00028467       0x53 D:\Project\MyProject1\mkrtos_real\mkrtos_sdk\Debug\libmkrtos_sdk.a(longjmp.o)
 .debug_loc     0x000284ba       0xe2 D:\Project\MyProject1\mkrtos_real\mkrtos_sdk\Debug\libmkrtos_sdk.a(memcmp.o)
 .debug_loc     0x0002859c      0x249 D:\Project\MyProject1\mkrtos_real\mkrtos_sdk\Debug\libmkrtos_sdk.a(memcpy.o)
 .debug_loc     0x000287e5      0x12e D:\Project\MyProject1\mkrtos_real\mkrtos_sdk\Debug\libmkrtos_sdk.a(memmove.o)
 .debug_loc     0x00028913       0x56 D:\Project\MyProject1\mkrtos_real\mkrtos_sdk\Debug\libmkrtos_sdk.a(memset.o)
 .debug_loc     0x00028969      0x39f D:\Project\MyProject1\mkrtos_real\mkrtos_sdk\Debug\libmkrtos_sdk.a(qsort.o)
 .debug_loc     0x00028d08       0x21 D:\Project\MyProject1\mkrtos_real\mkrtos_sdk\Debug\libmkrtos_sdk.a(rand.o)
 .debug_loc     0x00028d29       0x6a D:\Project\MyProject1\mkrtos_real\mkrtos_sdk\Debug\libmkrtos_sdk.a(rand_r.o)
 .debug_loc     0x00028d93       0x42 D:\Project\MyProject1\mkrtos_real\mkrtos_sdk\Debug\libmkrtos_sdk.a(remove.o)
 .debug_loc     0x00028dd5       0x63 D:\Project\MyProject1\mkrtos_real\mkrtos_sdk\Debug\libmkrtos_sdk.a(sigprocmask.o)
 .debug_loc     0x00028e38       0x42 D:\Project\MyProject1\mkrtos_real\mkrtos_sdk\Debug\libmkrtos_sdk.a(snprintf.o)
 .debug_loc     0x00028e7a       0x21 D:\Project\MyProject1\mkrtos_real\mkrtos_sdk\Debug\libmkrtos_sdk.a(sprintf.o)
 .debug_loc     0x00028e9b       0x21 D:\Project\MyProject1\mkrtos_real\mkrtos_sdk\Debug\libmkrtos_sdk.a(sscanf.o)
 .debug_loc     0x00028ebc       0xae D:\Project\MyProject1\mkrtos_real\mkrtos_sdk\Debug\libmkrtos_sdk.a(strchr.o)
 .debug_loc     0x00028f6a      0x1f5 D:\Project\MyProject1\mkrtos_real\mkrtos_sdk\Debug\libmkrtos_sdk.a(strcmp.o)
 .debug_loc     0x0002915f       0xf6 D:\Project\MyProject1\mkrtos_real\mkrtos_sdk\Debug\libmkrtos_sdk.a(strcpy.o)
 .debug_loc     0x00029255       0x21 D:\Project\MyProject1\mkrtos_real\mkrtos_sdk\Debug\libmkrtos_sdk.a(strerror.o)
 .debug_loc     0x00029276      0x178 D:\Project\MyProject1\mkrtos_real\mkrtos_sdk\Debug\libmkrtos_sdk.a(strlen.o)
 .debug_loc     0x000293ee       0xaf D:\Project\MyProject1\mkrtos_real\mkrtos_sdk\Debug\libmkrtos_sdk.a(strncmp.o)
 .debug_loc     0x0002949d       0x6b D:\Project\MyProject1\mkrtos_real\mkrtos_sdk\Debug\libmkrtos_sdk.a(strncpy.o)
 .debug_loc     0x00029508       0x90 D:\Project\MyProject1\mkrtos_real\mkrtos_sdk\Debug\libmkrtos_sdk.a(strrchr.o)
 .debug_loc     0x00029598       0x87 D:\Project\MyProject1\mkrtos_real\mkrtos_sdk\Debug\libmkrtos_sdk.a(strstr.o)
 .debug_loc     0x0002961f       0xf9 D:\Project\MyProject1\mkrtos_real\mkrtos_sdk\Debug\libmkrtos_sdk.a(strtol.o)
 .debug_loc     0x00029718       0xe5 D:\Project\MyProject1\mkrtos_real\mkrtos_sdk\Debug\libmkrtos_sdk.a(strtoll.o)
 .debug_loc     0x000297fd      0x28b D:\Project\MyProject1\mkrtos_real\mkrtos_sdk\Debug\libmkrtos_sdk.a(strtoul.o)
 .debug_loc     0x00029a88      0x2c0 D:\Project\MyProject1\mkrtos_real\mkrtos_sdk\Debug\libmkrtos_sdk.a(strtoull.o)
 .debug_loc     0x00029d48      0x16d D:\Project\MyProject1\mkrtos_real\mkrtos_sdk\Debug\libmkrtos_sdk.a(vsnprintf.o)
 .debug_loc     0x00029eb5       0x6b D:\Project\MyProject1\mkrtos_real\mkrtos_sdk\Debug\libmkrtos_sdk.a(vsprintf.o)
 .debug_loc     0x00029f20       0xce D:\Project\MyProject1\mkrtos_real\mkrtos_sdk\Debug\libmkrtos_sdk.a(vsscanf.o)
 .debug_loc     0x00029fee      0x265 D:\Project\MyProject1\mkrtos_real\mkrtos_sdk\Debug\libmkrtos_sdk.a(stackgap-g.o)
 .debug_loc     0x0002a253      0x111 D:\Project\MyProject1\mkrtos_real\mkrtos_sdk\Debug\libmkrtos_sdk.a(gmtime_r.o)
 .debug_loc     0x0002a364       0x53 D:\Project\MyProject1\mkrtos_real\mkrtos_sdk\Debug\libmkrtos_sdk.a(isleap.o)
 .debug_loc     0x0002a3b7       0x83 D:\Project\MyProject1\mkrtos_real\mkrtos_sdk\Debug\libmkrtos_sdk.a(fdglue.o)
 .debug_loc     0x0002a43a       0xa2 D:\Project\MyProject1\mkrtos_real\mkrtos_sdk\Debug\libmkrtos_sdk.a(fdglue2.o)
 .debug_loc     0x0002a4dc       0x7e D:\Project\MyProject1\mkrtos_real\mkrtos_sdk\Debug\libmkrtos_sdk.a(fgetc_unlocked.o)
 .debug_loc     0x0002a55a      0x17a D:\Project\MyProject1\mkrtos_real\mkrtos_sdk\Debug\libmkrtos_sdk.a(__ltostr.o)
 .debug_loc     0x0002a6d4      0x846 D:\Project\MyProject1\mkrtos_real\mkrtos_sdk\Debug\libmkrtos_sdk.a(__v_scanf.o)
 .debug_loc     0x0002af1a       0x47 D:\Project\MyProject1\mkrtos_real\mkrtos_sdk\Debug\libmkrtos_sdk.a(isalnum.o)
 .debug_loc     0x0002af61       0x38 D:\Project\MyProject1\mkrtos_real\mkrtos_sdk\Debug\libmkrtos_sdk.a(isspace.o)
 .debug_loc     0x0002af99       0x38 D:\Project\MyProject1\mkrtos_real\mkrtos_sdk\Debug\libmkrtos_sdk.a(isxdigit.o)
 .debug_loc     0x0002afd1       0x95 D:\Project\MyProject1\mkrtos_real\mkrtos_sdk\Debug\libmkrtos_sdk.a(memccpy.o)
 .debug_loc     0x0002b066       0x3f D:\Project\MyProject1\mkrtos_real\mkrtos_sdk\Debug\libmkrtos_sdk.a(sigjmp.o)
 .debug_loc     0x0002b0a5       0x6f D:\Project\MyProject1\mkrtos_real\mkrtos_sdk\Debug\libmkrtos_sdk.a(__main.o)
 .debug_loc     0x0002b114      0x10f D:\Project\MyProject1\mkrtos_real\mkrtos_sdk\Debug\libmkrtos_sdk.a(reloc.o)
 .debug_loc     0x0002b223       0x3a D:\Project\MyProject1\mkrtos_real\mkrtos_sdk\Debug\libmkrtos_sdk.a(feof.o)

.debug_aranges  0x00000000     0x1750
 .debug_aranges
                0x00000000      0xc48 ./src/tcc/tcc.o
 .debug_aranges
                0x00000c48       0x20 D:\Project\MyProject1\mkrtos_real\mkrtos_sdk\Debug\libmkrtos_sdk.a(localtime.o)
 .debug_aranges
                0x00000c68       0x20 D:\Project\MyProject1\mkrtos_real\mkrtos_sdk\Debug\libmkrtos_sdk.a(localtime_r.o)
 .debug_aranges
                0x00000c88       0x38 D:\Project\MyProject1\mkrtos_real\mkrtos_sdk\Debug\libmkrtos_sdk.a(tzfile.o)
 .debug_aranges
                0x00000cc0       0x20 D:\Project\MyProject1\mkrtos_real\mkrtos_sdk\Debug\libmkrtos_sdk.a(fclose.o)
 .debug_aranges
                0x00000ce0       0x20 D:\Project\MyProject1\mkrtos_real\mkrtos_sdk\Debug\libmkrtos_sdk.a(fdopen.o)
 .debug_aranges
                0x00000d00       0x38 D:\Project\MyProject1\mkrtos_real\mkrtos_sdk\Debug\libmkrtos_sdk.a(fflush.o)
 .debug_aranges
                0x00000d38       0x20 D:\Project\MyProject1\mkrtos_real\mkrtos_sdk\Debug\libmkrtos_sdk.a(fopen.o)
 .debug_aranges
                0x00000d58       0x20 D:\Project\MyProject1\mkrtos_real\mkrtos_sdk\Debug\libmkrtos_sdk.a(fprintf.o)
 .debug_aranges
                0x00000d78       0x20 D:\Project\MyProject1\mkrtos_real\mkrtos_sdk\Debug\libmkrtos_sdk.a(fputc_unlocked.o)
 .debug_aranges
                0x00000d98       0x20 D:\Project\MyProject1\mkrtos_real\mkrtos_sdk\Debug\libmkrtos_sdk.a(fputs.o)
 .debug_aranges
                0x00000db8       0x20 D:\Project\MyProject1\mkrtos_real\mkrtos_sdk\Debug\libmkrtos_sdk.a(fread.o)
 .debug_aranges
                0x00000dd8       0x20 D:\Project\MyProject1\mkrtos_real\mkrtos_sdk\Debug\libmkrtos_sdk.a(fseek.o)
 .debug_aranges
                0x00000df8       0x20 D:\Project\MyProject1\mkrtos_real\mkrtos_sdk\Debug\libmkrtos_sdk.a(ftell.o)
 .debug_aranges
                0x00000e18       0x20 D:\Project\MyProject1\mkrtos_real\mkrtos_sdk\Debug\libmkrtos_sdk.a(fwrite.o)
 .debug_aranges
                0x00000e38       0x20 D:\Project\MyProject1\mkrtos_real\mkrtos_sdk\Debug\libmkrtos_sdk.a(printf.o)
 .debug_aranges
                0x00000e58       0x20 D:\Project\MyProject1\mkrtos_real\mkrtos_sdk\Debug\libmkrtos_sdk.a(stderr.o)
 .debug_aranges
                0x00000e78       0x28 D:\Project\MyProject1\mkrtos_real\mkrtos_sdk\Debug\libmkrtos_sdk.a(stdin.o)
 .debug_aranges
                0x00000ea0       0x20 D:\Project\MyProject1\mkrtos_real\mkrtos_sdk\Debug\libmkrtos_sdk.a(stdout.o)
 .debug_aranges
                0x00000ec0       0x28 D:\Project\MyProject1\mkrtos_real\mkrtos_sdk\Debug\libmkrtos_sdk.a(vfprintf.o)
 .debug_aranges
                0x00000ee8       0x28 D:\Project\MyProject1\mkrtos_real\mkrtos_sdk\Debug\libmkrtos_sdk.a(vprintf.o)
 .debug_aranges
                0x00000f10       0x20 D:\Project\MyProject1\mkrtos_real\mkrtos_sdk\Debug\libmkrtos_sdk.a(__getcwd.o)
 .debug_aranges
                0x00000f30       0x20 D:\Project\MyProject1\mkrtos_real\mkrtos_sdk\Debug\libmkrtos_sdk.a(__mmap.o)
 .debug_aranges
                0x00000f50       0x20 D:\Project\MyProject1\mkrtos_real\mkrtos_sdk\Debug\libmkrtos_sdk.a(__time.o)
 .debug_aranges
                0x00000f70       0x28 D:\Project\MyProject1\mkrtos_real\mkrtos_sdk\Debug\libmkrtos_sdk.a(__v_printf.o)
 .debug_aranges
                0x00000f98       0x40 D:\Project\MyProject1\mkrtos_real\mkrtos_sdk\Debug\libmkrtos_sdk.a(alloc.o)
 .debug_aranges
                0x00000fd8       0x28 D:\Project\MyProject1\mkrtos_real\mkrtos_sdk\Debug\libmkrtos_sdk.a(atexit.o)
 .debug_aranges
                0x00001000       0x20 D:\Project\MyProject1\mkrtos_real\mkrtos_sdk\Debug\libmkrtos_sdk.a(atol.o)
 .debug_aranges
                0x00001020       0x20 D:\Project\MyProject1\mkrtos_real\mkrtos_sdk\Debug\libmkrtos_sdk.a(errno_location.o)
 .debug_aranges
                0x00001040       0x20 D:\Project\MyProject1\mkrtos_real\mkrtos_sdk\Debug\libmkrtos_sdk.a(getenv.o)
 .debug_aranges
                0x00001060       0x20 D:\Project\MyProject1\mkrtos_real\mkrtos_sdk\Debug\libmkrtos_sdk.a(htonl.o)
 .debug_aranges
                0x00001080       0x20 D:\Project\MyProject1\mkrtos_real\mkrtos_sdk\Debug\libmkrtos_sdk.a(isatty.o)
 .debug_aranges
                0x000010a0       0x20 D:\Project\MyProject1\mkrtos_real\mkrtos_sdk\Debug\libmkrtos_sdk.a(longjmp.o)
 .debug_aranges
                0x000010c0       0x20 D:\Project\MyProject1\mkrtos_real\mkrtos_sdk\Debug\libmkrtos_sdk.a(memcmp.o)
 .debug_aranges
                0x000010e0       0x20 D:\Project\MyProject1\mkrtos_real\mkrtos_sdk\Debug\libmkrtos_sdk.a(memcpy.o)
 .debug_aranges
                0x00001100       0x20 D:\Project\MyProject1\mkrtos_real\mkrtos_sdk\Debug\libmkrtos_sdk.a(memmove.o)
 .debug_aranges
                0x00001120       0x20 D:\Project\MyProject1\mkrtos_real\mkrtos_sdk\Debug\libmkrtos_sdk.a(memset.o)
 .debug_aranges
                0x00001140       0x30 D:\Project\MyProject1\mkrtos_real\mkrtos_sdk\Debug\libmkrtos_sdk.a(qsort.o)
 .debug_aranges
                0x00001170       0x28 D:\Project\MyProject1\mkrtos_real\mkrtos_sdk\Debug\libmkrtos_sdk.a(rand.o)
 .debug_aranges
                0x00001198       0x20 D:\Project\MyProject1\mkrtos_real\mkrtos_sdk\Debug\libmkrtos_sdk.a(rand_r.o)
 .debug_aranges
                0x000011b8       0x20 D:\Project\MyProject1\mkrtos_real\mkrtos_sdk\Debug\libmkrtos_sdk.a(remove.o)
 .debug_aranges
                0x000011d8       0x20 D:\Project\MyProject1\mkrtos_real\mkrtos_sdk\Debug\libmkrtos_sdk.a(sigprocmask.o)
 .debug_aranges
                0x000011f8       0x20 D:\Project\MyProject1\mkrtos_real\mkrtos_sdk\Debug\libmkrtos_sdk.a(snprintf.o)
 .debug_aranges
                0x00001218       0x20 D:\Project\MyProject1\mkrtos_real\mkrtos_sdk\Debug\libmkrtos_sdk.a(sprintf.o)
 .debug_aranges
                0x00001238       0x20 D:\Project\MyProject1\mkrtos_real\mkrtos_sdk\Debug\libmkrtos_sdk.a(sscanf.o)
 .debug_aranges
                0x00001258       0x20 D:\Project\MyProject1\mkrtos_real\mkrtos_sdk\Debug\libmkrtos_sdk.a(strchr.o)
 .debug_aranges
                0x00001278       0x20 D:\Project\MyProject1\mkrtos_real\mkrtos_sdk\Debug\libmkrtos_sdk.a(strcmp.o)
 .debug_aranges
                0x00001298       0x20 D:\Project\MyProject1\mkrtos_real\mkrtos_sdk\Debug\libmkrtos_sdk.a(strcpy.o)
 .debug_aranges
                0x000012b8       0x20 D:\Project\MyProject1\mkrtos_real\mkrtos_sdk\Debug\libmkrtos_sdk.a(strerror.o)
 .debug_aranges
                0x000012d8       0x20 D:\Project\MyProject1\mkrtos_real\mkrtos_sdk\Debug\libmkrtos_sdk.a(strlen.o)
 .debug_aranges
                0x000012f8       0x20 D:\Project\MyProject1\mkrtos_real\mkrtos_sdk\Debug\libmkrtos_sdk.a(strncmp.o)
 .debug_aranges
                0x00001318       0x20 D:\Project\MyProject1\mkrtos_real\mkrtos_sdk\Debug\libmkrtos_sdk.a(strncpy.o)
 .debug_aranges
                0x00001338       0x20 D:\Project\MyProject1\mkrtos_real\mkrtos_sdk\Debug\libmkrtos_sdk.a(strrchr.o)
 .debug_aranges
                0x00001358       0x20 D:\Project\MyProject1\mkrtos_real\mkrtos_sdk\Debug\libmkrtos_sdk.a(strstr.o)
 .debug_aranges
                0x00001378       0x20 D:\Project\MyProject1\mkrtos_real\mkrtos_sdk\Debug\libmkrtos_sdk.a(strtol.o)
 .debug_aranges
                0x00001398       0x20 D:\Project\MyProject1\mkrtos_real\mkrtos_sdk\Debug\libmkrtos_sdk.a(strtoll.o)
 .debug_aranges
                0x000013b8       0x20 D:\Project\MyProject1\mkrtos_real\mkrtos_sdk\Debug\libmkrtos_sdk.a(strtoul.o)
 .debug_aranges
                0x000013d8       0x20 D:\Project\MyProject1\mkrtos_real\mkrtos_sdk\Debug\libmkrtos_sdk.a(strtoull.o)
 .debug_aranges
                0x000013f8       0x28 D:\Project\MyProject1\mkrtos_real\mkrtos_sdk\Debug\libmkrtos_sdk.a(vsnprintf.o)
 .debug_aranges
                0x00001420       0x20 D:\Project\MyProject1\mkrtos_real\mkrtos_sdk\Debug\libmkrtos_sdk.a(vsprintf.o)
 .debug_aranges
                0x00001440       0x30 D:\Project\MyProject1\mkrtos_real\mkrtos_sdk\Debug\libmkrtos_sdk.a(vsscanf.o)
 .debug_aranges
                0x00001470       0x20 D:\Project\MyProject1\mkrtos_real\mkrtos_sdk\Debug\libmkrtos_sdk.a(dyn_syscalls.o)
 .debug_aranges
                0x00001490       0x20 D:\Project\MyProject1\mkrtos_real\mkrtos_sdk\Debug\libmkrtos_sdk.a(start.o)
 .debug_aranges
                0x000014b0       0x38 D:\Project\MyProject1\mkrtos_real\mkrtos_sdk\Debug\libmkrtos_sdk.a(stackgap-g.o)
 .debug_aranges
                0x000014e8       0x20 D:\Project\MyProject1\mkrtos_real\mkrtos_sdk\Debug\libmkrtos_sdk.a(start.o)
 .debug_aranges
                0x00001508       0x20 D:\Project\MyProject1\mkrtos_real\mkrtos_sdk\Debug\libmkrtos_sdk.a(gmtime_r.o)
 .debug_aranges
                0x00001528       0x20 D:\Project\MyProject1\mkrtos_real\mkrtos_sdk\Debug\libmkrtos_sdk.a(isleap.o)
 .debug_aranges
                0x00001548       0x18 D:\Project\MyProject1\mkrtos_real\mkrtos_sdk\Debug\libmkrtos_sdk.a(time_table_spd.o)
 .debug_aranges
                0x00001560       0x18 D:\Project\MyProject1\mkrtos_real\mkrtos_sdk\Debug\libmkrtos_sdk.a(timezone.o)
 .debug_aranges
                0x00001578       0x20 D:\Project\MyProject1\mkrtos_real\mkrtos_sdk\Debug\libmkrtos_sdk.a(fdglue.o)
 .debug_aranges
                0x00001598       0x20 D:\Project\MyProject1\mkrtos_real\mkrtos_sdk\Debug\libmkrtos_sdk.a(fdglue2.o)
 .debug_aranges
                0x000015b8       0x20 D:\Project\MyProject1\mkrtos_real\mkrtos_sdk\Debug\libmkrtos_sdk.a(fgetc_unlocked.o)
 .debug_aranges
                0x000015d8       0x20 D:\Project\MyProject1\mkrtos_real\mkrtos_sdk\Debug\libmkrtos_sdk.a(__ltostr.o)
 .debug_aranges
                0x000015f8       0x20 D:\Project\MyProject1\mkrtos_real\mkrtos_sdk\Debug\libmkrtos_sdk.a(__v_scanf.o)
 .debug_aranges
                0x00001618       0x18 D:\Project\MyProject1\mkrtos_real\mkrtos_sdk\Debug\libmkrtos_sdk.a(errlistu.o)
 .debug_aranges
                0x00001630       0x20 D:\Project\MyProject1\mkrtos_real\mkrtos_sdk\Debug\libmkrtos_sdk.a(isalnum.o)
 .debug_aranges
                0x00001650       0x20 D:\Project\MyProject1\mkrtos_real\mkrtos_sdk\Debug\libmkrtos_sdk.a(isspace.o)
 .debug_aranges
                0x00001670       0x20 D:\Project\MyProject1\mkrtos_real\mkrtos_sdk\Debug\libmkrtos_sdk.a(isxdigit.o)
 .debug_aranges
                0x00001690       0x20 D:\Project\MyProject1\mkrtos_real\mkrtos_sdk\Debug\libmkrtos_sdk.a(memccpy.o)
 .debug_aranges
                0x000016b0       0x20 D:\Project\MyProject1\mkrtos_real\mkrtos_sdk\Debug\libmkrtos_sdk.a(sigjmp.o)
 .debug_aranges
                0x000016d0       0x20 D:\Project\MyProject1\mkrtos_real\mkrtos_sdk\Debug\libmkrtos_sdk.a(arm_set_tls.o)
 .debug_aranges
                0x000016f0       0x20 D:\Project\MyProject1\mkrtos_real\mkrtos_sdk\Debug\libmkrtos_sdk.a(__main.o)
 .debug_aranges
                0x00001710       0x20 D:\Project\MyProject1\mkrtos_real\mkrtos_sdk\Debug\libmkrtos_sdk.a(reloc.o)
 .debug_aranges
                0x00001730       0x20 D:\Project\MyProject1\mkrtos_real\mkrtos_sdk\Debug\libmkrtos_sdk.a(feof.o)

.debug_ranges   0x00000000     0x2e50
 .debug_ranges  0x00000000     0x2618 ./src/tcc/tcc.o
 .debug_ranges  0x00002618       0x10 D:\Project\MyProject1\mkrtos_real\mkrtos_sdk\Debug\libmkrtos_sdk.a(localtime.o)
 .debug_ranges  0x00002628       0x10 D:\Project\MyProject1\mkrtos_real\mkrtos_sdk\Debug\libmkrtos_sdk.a(localtime_r.o)
 .debug_ranges  0x00002638       0x88 D:\Project\MyProject1\mkrtos_real\mkrtos_sdk\Debug\libmkrtos_sdk.a(tzfile.o)
 .debug_ranges  0x000026c0       0x10 D:\Project\MyProject1\mkrtos_real\mkrtos_sdk\Debug\libmkrtos_sdk.a(fclose.o)
 .debug_ranges  0x000026d0       0x10 D:\Project\MyProject1\mkrtos_real\mkrtos_sdk\Debug\libmkrtos_sdk.a(fdopen.o)
 .debug_ranges  0x000026e0       0x28 D:\Project\MyProject1\mkrtos_real\mkrtos_sdk\Debug\libmkrtos_sdk.a(fflush.o)
 .debug_ranges  0x00002708       0x10 D:\Project\MyProject1\mkrtos_real\mkrtos_sdk\Debug\libmkrtos_sdk.a(fopen.o)
 .debug_ranges  0x00002718       0x10 D:\Project\MyProject1\mkrtos_real\mkrtos_sdk\Debug\libmkrtos_sdk.a(fprintf.o)
 .debug_ranges  0x00002728       0x10 D:\Project\MyProject1\mkrtos_real\mkrtos_sdk\Debug\libmkrtos_sdk.a(fputc_unlocked.o)
 .debug_ranges  0x00002738       0x10 D:\Project\MyProject1\mkrtos_real\mkrtos_sdk\Debug\libmkrtos_sdk.a(fputs.o)
 .debug_ranges  0x00002748       0x10 D:\Project\MyProject1\mkrtos_real\mkrtos_sdk\Debug\libmkrtos_sdk.a(fread.o)
 .debug_ranges  0x00002758       0x10 D:\Project\MyProject1\mkrtos_real\mkrtos_sdk\Debug\libmkrtos_sdk.a(fseek.o)
 .debug_ranges  0x00002768       0x10 D:\Project\MyProject1\mkrtos_real\mkrtos_sdk\Debug\libmkrtos_sdk.a(ftell.o)
 .debug_ranges  0x00002778       0x28 D:\Project\MyProject1\mkrtos_real\mkrtos_sdk\Debug\libmkrtos_sdk.a(fwrite.o)
 .debug_ranges  0x000027a0       0x10 D:\Project\MyProject1\mkrtos_real\mkrtos_sdk\Debug\libmkrtos_sdk.a(printf.o)
 .debug_ranges  0x000027b0       0x10 D:\Project\MyProject1\mkrtos_real\mkrtos_sdk\Debug\libmkrtos_sdk.a(stderr.o)
 .debug_ranges  0x000027c0       0x18 D:\Project\MyProject1\mkrtos_real\mkrtos_sdk\Debug\libmkrtos_sdk.a(stdin.o)
 .debug_ranges  0x000027d8       0x10 D:\Project\MyProject1\mkrtos_real\mkrtos_sdk\Debug\libmkrtos_sdk.a(stdout.o)
 .debug_ranges  0x000027e8       0x18 D:\Project\MyProject1\mkrtos_real\mkrtos_sdk\Debug\libmkrtos_sdk.a(vfprintf.o)
 .debug_ranges  0x00002800       0x18 D:\Project\MyProject1\mkrtos_real\mkrtos_sdk\Debug\libmkrtos_sdk.a(vprintf.o)
 .debug_ranges  0x00002818       0x10 D:\Project\MyProject1\mkrtos_real\mkrtos_sdk\Debug\libmkrtos_sdk.a(__getcwd.o)
 .debug_ranges  0x00002828       0x10 D:\Project\MyProject1\mkrtos_real\mkrtos_sdk\Debug\libmkrtos_sdk.a(__mmap.o)
 .debug_ranges  0x00002838       0x10 D:\Project\MyProject1\mkrtos_real\mkrtos_sdk\Debug\libmkrtos_sdk.a(__time.o)
 .debug_ranges  0x00002848       0x98 D:\Project\MyProject1\mkrtos_real\mkrtos_sdk\Debug\libmkrtos_sdk.a(__v_printf.o)
 .debug_ranges  0x000028e0       0x78 D:\Project\MyProject1\mkrtos_real\mkrtos_sdk\Debug\libmkrtos_sdk.a(alloc.o)
 .debug_ranges  0x00002958       0x18 D:\Project\MyProject1\mkrtos_real\mkrtos_sdk\Debug\libmkrtos_sdk.a(atexit.o)
 .debug_ranges  0x00002970       0x10 D:\Project\MyProject1\mkrtos_real\mkrtos_sdk\Debug\libmkrtos_sdk.a(atol.o)
 .debug_ranges  0x00002980       0x10 D:\Project\MyProject1\mkrtos_real\mkrtos_sdk\Debug\libmkrtos_sdk.a(errno_location.o)
 .debug_ranges  0x00002990       0x10 D:\Project\MyProject1\mkrtos_real\mkrtos_sdk\Debug\libmkrtos_sdk.a(getenv.o)
 .debug_ranges  0x000029a0       0x10 D:\Project\MyProject1\mkrtos_real\mkrtos_sdk\Debug\libmkrtos_sdk.a(htonl.o)
 .debug_ranges  0x000029b0       0x10 D:\Project\MyProject1\mkrtos_real\mkrtos_sdk\Debug\libmkrtos_sdk.a(isatty.o)
 .debug_ranges  0x000029c0       0x10 D:\Project\MyProject1\mkrtos_real\mkrtos_sdk\Debug\libmkrtos_sdk.a(longjmp.o)
 .debug_ranges  0x000029d0       0x10 D:\Project\MyProject1\mkrtos_real\mkrtos_sdk\Debug\libmkrtos_sdk.a(memcmp.o)
 .debug_ranges  0x000029e0       0x10 D:\Project\MyProject1\mkrtos_real\mkrtos_sdk\Debug\libmkrtos_sdk.a(memcpy.o)
 .debug_ranges  0x000029f0       0x10 D:\Project\MyProject1\mkrtos_real\mkrtos_sdk\Debug\libmkrtos_sdk.a(memmove.o)
 .debug_ranges  0x00002a00       0x10 D:\Project\MyProject1\mkrtos_real\mkrtos_sdk\Debug\libmkrtos_sdk.a(memset.o)
 .debug_ranges  0x00002a10       0x20 D:\Project\MyProject1\mkrtos_real\mkrtos_sdk\Debug\libmkrtos_sdk.a(qsort.o)
 .debug_ranges  0x00002a30       0x18 D:\Project\MyProject1\mkrtos_real\mkrtos_sdk\Debug\libmkrtos_sdk.a(rand.o)
 .debug_ranges  0x00002a48       0x10 D:\Project\MyProject1\mkrtos_real\mkrtos_sdk\Debug\libmkrtos_sdk.a(rand_r.o)
 .debug_ranges  0x00002a58       0x10 D:\Project\MyProject1\mkrtos_real\mkrtos_sdk\Debug\libmkrtos_sdk.a(remove.o)
 .debug_ranges  0x00002a68       0x10 D:\Project\MyProject1\mkrtos_real\mkrtos_sdk\Debug\libmkrtos_sdk.a(sigprocmask.o)
 .debug_ranges  0x00002a78       0x10 D:\Project\MyProject1\mkrtos_real\mkrtos_sdk\Debug\libmkrtos_sdk.a(snprintf.o)
 .debug_ranges  0x00002a88       0x10 D:\Project\MyProject1\mkrtos_real\mkrtos_sdk\Debug\libmkrtos_sdk.a(sprintf.o)
 .debug_ranges  0x00002a98       0x10 D:\Project\MyProject1\mkrtos_real\mkrtos_sdk\Debug\libmkrtos_sdk.a(sscanf.o)
 .debug_ranges  0x00002aa8       0x10 D:\Project\MyProject1\mkrtos_real\mkrtos_sdk\Debug\libmkrtos_sdk.a(strchr.o)
 .debug_ranges  0x00002ab8       0x10 D:\Project\MyProject1\mkrtos_real\mkrtos_sdk\Debug\libmkrtos_sdk.a(strcmp.o)
 .debug_ranges  0x00002ac8       0x10 D:\Project\MyProject1\mkrtos_real\mkrtos_sdk\Debug\libmkrtos_sdk.a(strcpy.o)
 .debug_ranges  0x00002ad8       0x10 D:\Project\MyProject1\mkrtos_real\mkrtos_sdk\Debug\libmkrtos_sdk.a(strerror.o)
 .debug_ranges  0x00002ae8       0x10 D:\Project\MyProject1\mkrtos_real\mkrtos_sdk\Debug\libmkrtos_sdk.a(strlen.o)
 .debug_ranges  0x00002af8       0x28 D:\Project\MyProject1\mkrtos_real\mkrtos_sdk\Debug\libmkrtos_sdk.a(strncmp.o)
 .debug_ranges  0x00002b20       0x10 D:\Project\MyProject1\mkrtos_real\mkrtos_sdk\Debug\libmkrtos_sdk.a(strncpy.o)
 .debug_ranges  0x00002b30       0x10 D:\Project\MyProject1\mkrtos_real\mkrtos_sdk\Debug\libmkrtos_sdk.a(strrchr.o)
 .debug_ranges  0x00002b40       0x10 D:\Project\MyProject1\mkrtos_real\mkrtos_sdk\Debug\libmkrtos_sdk.a(strstr.o)
 .debug_ranges  0x00002b50       0x10 D:\Project\MyProject1\mkrtos_real\mkrtos_sdk\Debug\libmkrtos_sdk.a(strtol.o)
 .debug_ranges  0x00002b60       0x10 D:\Project\MyProject1\mkrtos_real\mkrtos_sdk\Debug\libmkrtos_sdk.a(strtoll.o)
 .debug_ranges  0x00002b70       0x48 D:\Project\MyProject1\mkrtos_real\mkrtos_sdk\Debug\libmkrtos_sdk.a(strtoul.o)
 .debug_ranges  0x00002bb8       0x48 D:\Project\MyProject1\mkrtos_real\mkrtos_sdk\Debug\libmkrtos_sdk.a(strtoull.o)
 .debug_ranges  0x00002c00       0x18 D:\Project\MyProject1\mkrtos_real\mkrtos_sdk\Debug\libmkrtos_sdk.a(vsnprintf.o)
 .debug_ranges  0x00002c18       0x10 D:\Project\MyProject1\mkrtos_real\mkrtos_sdk\Debug\libmkrtos_sdk.a(vsprintf.o)
 .debug_ranges  0x00002c28       0x20 D:\Project\MyProject1\mkrtos_real\mkrtos_sdk\Debug\libmkrtos_sdk.a(vsscanf.o)
 .debug_ranges  0x00002c48       0x68 D:\Project\MyProject1\mkrtos_real\mkrtos_sdk\Debug\libmkrtos_sdk.a(stackgap-g.o)
 .debug_ranges  0x00002cb0       0x10 D:\Project\MyProject1\mkrtos_real\mkrtos_sdk\Debug\libmkrtos_sdk.a(gmtime_r.o)
 .debug_ranges  0x00002cc0       0x10 D:\Project\MyProject1\mkrtos_real\mkrtos_sdk\Debug\libmkrtos_sdk.a(isleap.o)
 .debug_ranges  0x00002cd0       0x10 D:\Project\MyProject1\mkrtos_real\mkrtos_sdk\Debug\libmkrtos_sdk.a(fdglue.o)
 .debug_ranges  0x00002ce0       0x30 D:\Project\MyProject1\mkrtos_real\mkrtos_sdk\Debug\libmkrtos_sdk.a(fdglue2.o)
 .debug_ranges  0x00002d10       0x28 D:\Project\MyProject1\mkrtos_real\mkrtos_sdk\Debug\libmkrtos_sdk.a(fgetc_unlocked.o)
 .debug_ranges  0x00002d38       0x10 D:\Project\MyProject1\mkrtos_real\mkrtos_sdk\Debug\libmkrtos_sdk.a(__ltostr.o)
 .debug_ranges  0x00002d48       0x88 D:\Project\MyProject1\mkrtos_real\mkrtos_sdk\Debug\libmkrtos_sdk.a(__v_scanf.o)
 .debug_ranges  0x00002dd0       0x10 D:\Project\MyProject1\mkrtos_real\mkrtos_sdk\Debug\libmkrtos_sdk.a(isalnum.o)
 .debug_ranges  0x00002de0       0x10 D:\Project\MyProject1\mkrtos_real\mkrtos_sdk\Debug\libmkrtos_sdk.a(isspace.o)
 .debug_ranges  0x00002df0       0x10 D:\Project\MyProject1\mkrtos_real\mkrtos_sdk\Debug\libmkrtos_sdk.a(isxdigit.o)
 .debug_ranges  0x00002e00       0x10 D:\Project\MyProject1\mkrtos_real\mkrtos_sdk\Debug\libmkrtos_sdk.a(memccpy.o)
 .debug_ranges  0x00002e10       0x10 D:\Project\MyProject1\mkrtos_real\mkrtos_sdk\Debug\libmkrtos_sdk.a(sigjmp.o)
 .debug_ranges  0x00002e20       0x10 D:\Project\MyProject1\mkrtos_real\mkrtos_sdk\Debug\libmkrtos_sdk.a(__main.o)
 .debug_ranges  0x00002e30       0x10 D:\Project\MyProject1\mkrtos_real\mkrtos_sdk\Debug\libmkrtos_sdk.a(reloc.o)
 .debug_ranges  0x00002e40       0x10 D:\Project\MyProject1\mkrtos_real\mkrtos_sdk\Debug\libmkrtos_sdk.a(feof.o)

.debug_line     0x00000000     0xed2e
 .debug_line    0x00000000     0x8694 ./src/tcc/tcc.o
 .debug_line    0x00008694      0x10c D:\Project\MyProject1\mkrtos_real\mkrtos_sdk\Debug\libmkrtos_sdk.a(localtime.o)
 .debug_line    0x000087a0      0x110 D:\Project\MyProject1\mkrtos_real\mkrtos_sdk\Debug\libmkrtos_sdk.a(localtime_r.o)
 .debug_line    0x000088b0      0x226 D:\Project\MyProject1\mkrtos_real\mkrtos_sdk\Debug\libmkrtos_sdk.a(tzfile.o)
 .debug_line    0x00008ad6      0x192 D:\Project\MyProject1\mkrtos_real\mkrtos_sdk\Debug\libmkrtos_sdk.a(fclose.o)
 .debug_line    0x00008c68      0x182 D:\Project\MyProject1\mkrtos_real\mkrtos_sdk\Debug\libmkrtos_sdk.a(fdopen.o)
 .debug_line    0x00008dea      0x204 D:\Project\MyProject1\mkrtos_real\mkrtos_sdk\Debug\libmkrtos_sdk.a(fflush.o)
 .debug_line    0x00008fee      0x16d D:\Project\MyProject1\mkrtos_real\mkrtos_sdk\Debug\libmkrtos_sdk.a(fopen.o)
 .debug_line    0x0000915b       0xc5 D:\Project\MyProject1\mkrtos_real\mkrtos_sdk\Debug\libmkrtos_sdk.a(fprintf.o)
 .debug_line    0x00009220      0x19d D:\Project\MyProject1\mkrtos_real\mkrtos_sdk\Debug\libmkrtos_sdk.a(fputc_unlocked.o)
 .debug_line    0x000093bd      0x180 D:\Project\MyProject1\mkrtos_real\mkrtos_sdk\Debug\libmkrtos_sdk.a(fputs.o)
 .debug_line    0x0000953d      0x1d1 D:\Project\MyProject1\mkrtos_real\mkrtos_sdk\Debug\libmkrtos_sdk.a(fread.o)
 .debug_line    0x0000970e      0x179 D:\Project\MyProject1\mkrtos_real\mkrtos_sdk\Debug\libmkrtos_sdk.a(fseek.o)
 .debug_line    0x00009887      0x180 D:\Project\MyProject1\mkrtos_real\mkrtos_sdk\Debug\libmkrtos_sdk.a(ftell.o)
 .debug_line    0x00009a07      0x20e D:\Project\MyProject1\mkrtos_real\mkrtos_sdk\Debug\libmkrtos_sdk.a(fwrite.o)
 .debug_line    0x00009c15       0xc4 D:\Project\MyProject1\mkrtos_real\mkrtos_sdk\Debug\libmkrtos_sdk.a(printf.o)
 .debug_line    0x00009cd9      0x168 D:\Project\MyProject1\mkrtos_real\mkrtos_sdk\Debug\libmkrtos_sdk.a(stderr.o)
 .debug_line    0x00009e41      0x18c D:\Project\MyProject1\mkrtos_real\mkrtos_sdk\Debug\libmkrtos_sdk.a(stdin.o)
 .debug_line    0x00009fcd      0x168 D:\Project\MyProject1\mkrtos_real\mkrtos_sdk\Debug\libmkrtos_sdk.a(stdout.o)
 .debug_line    0x0000a135      0x1a5 D:\Project\MyProject1\mkrtos_real\mkrtos_sdk\Debug\libmkrtos_sdk.a(vfprintf.o)
 .debug_line    0x0000a2da      0x18a D:\Project\MyProject1\mkrtos_real\mkrtos_sdk\Debug\libmkrtos_sdk.a(vprintf.o)
 .debug_line    0x0000a464       0xb6 D:\Project\MyProject1\mkrtos_real\mkrtos_sdk\Debug\libmkrtos_sdk.a(__getcwd.o)
 .debug_line    0x0000a51a      0x10c D:\Project\MyProject1\mkrtos_real\mkrtos_sdk\Debug\libmkrtos_sdk.a(__mmap.o)
 .debug_line    0x0000a626       0xb5 D:\Project\MyProject1\mkrtos_real\mkrtos_sdk\Debug\libmkrtos_sdk.a(__time.o)
 .debug_line    0x0000a6db      0x348 D:\Project\MyProject1\mkrtos_real\mkrtos_sdk\Debug\libmkrtos_sdk.a(__v_printf.o)
 .debug_line    0x0000aa23      0x1f0 D:\Project\MyProject1\mkrtos_real\mkrtos_sdk\Debug\libmkrtos_sdk.a(alloc.o)
 .debug_line    0x0000ac13       0xc0 D:\Project\MyProject1\mkrtos_real\mkrtos_sdk\Debug\libmkrtos_sdk.a(atexit.o)
 .debug_line    0x0000acd3       0x6d D:\Project\MyProject1\mkrtos_real\mkrtos_sdk\Debug\libmkrtos_sdk.a(atol.o)
 .debug_line    0x0000ad40       0x58 D:\Project\MyProject1\mkrtos_real\mkrtos_sdk\Debug\libmkrtos_sdk.a(errno_location.o)
 .debug_line    0x0000ad98       0xd5 D:\Project\MyProject1\mkrtos_real\mkrtos_sdk\Debug\libmkrtos_sdk.a(getenv.o)
 .debug_line    0x0000ae6d       0xa4 D:\Project\MyProject1\mkrtos_real\mkrtos_sdk\Debug\libmkrtos_sdk.a(htonl.o)
 .debug_line    0x0000af11      0x119 D:\Project\MyProject1\mkrtos_real\mkrtos_sdk\Debug\libmkrtos_sdk.a(isatty.o)
 .debug_line    0x0000b02a       0xb5 D:\Project\MyProject1\mkrtos_real\mkrtos_sdk\Debug\libmkrtos_sdk.a(longjmp.o)
 .debug_line    0x0000b0df       0xa7 D:\Project\MyProject1\mkrtos_real\mkrtos_sdk\Debug\libmkrtos_sdk.a(memcmp.o)
 .debug_line    0x0000b186       0xe1 D:\Project\MyProject1\mkrtos_real\mkrtos_sdk\Debug\libmkrtos_sdk.a(memcpy.o)
 .debug_line    0x0000b267       0xc2 D:\Project\MyProject1\mkrtos_real\mkrtos_sdk\Debug\libmkrtos_sdk.a(memmove.o)
 .debug_line    0x0000b329       0xa6 D:\Project\MyProject1\mkrtos_real\mkrtos_sdk\Debug\libmkrtos_sdk.a(memset.o)
 .debug_line    0x0000b3cf      0x18e D:\Project\MyProject1\mkrtos_real\mkrtos_sdk\Debug\libmkrtos_sdk.a(qsort.o)
 .debug_line    0x0000b55d       0xb3 D:\Project\MyProject1\mkrtos_real\mkrtos_sdk\Debug\libmkrtos_sdk.a(rand.o)
 .debug_line    0x0000b610       0xad D:\Project\MyProject1\mkrtos_real\mkrtos_sdk\Debug\libmkrtos_sdk.a(rand_r.o)
 .debug_line    0x0000b6bd       0xb5 D:\Project\MyProject1\mkrtos_real\mkrtos_sdk\Debug\libmkrtos_sdk.a(remove.o)
 .debug_line    0x0000b772       0xa8 D:\Project\MyProject1\mkrtos_real\mkrtos_sdk\Debug\libmkrtos_sdk.a(sigprocmask.o)
 .debug_line    0x0000b81a       0xcd D:\Project\MyProject1\mkrtos_real\mkrtos_sdk\Debug\libmkrtos_sdk.a(snprintf.o)
 .debug_line    0x0000b8e7       0xc0 D:\Project\MyProject1\mkrtos_real\mkrtos_sdk\Debug\libmkrtos_sdk.a(sprintf.o)
 .debug_line    0x0000b9a7       0xbf D:\Project\MyProject1\mkrtos_real\mkrtos_sdk\Debug\libmkrtos_sdk.a(sscanf.o)
 .debug_line    0x0000ba66       0x62 D:\Project\MyProject1\mkrtos_real\mkrtos_sdk\Debug\libmkrtos_sdk.a(strchr.o)
 .debug_line    0x0000bac8       0xe1 D:\Project\MyProject1\mkrtos_real\mkrtos_sdk\Debug\libmkrtos_sdk.a(strcmp.o)
 .debug_line    0x0000bba9       0xd2 D:\Project\MyProject1\mkrtos_real\mkrtos_sdk\Debug\libmkrtos_sdk.a(strcpy.o)
 .debug_line    0x0000bc7b       0x5f D:\Project\MyProject1\mkrtos_real\mkrtos_sdk\Debug\libmkrtos_sdk.a(strerror.o)
 .debug_line    0x0000bcda       0xde D:\Project\MyProject1\mkrtos_real\mkrtos_sdk\Debug\libmkrtos_sdk.a(strlen.o)
 .debug_line    0x0000bdb8       0xaa D:\Project\MyProject1\mkrtos_real\mkrtos_sdk\Debug\libmkrtos_sdk.a(strncmp.o)
 .debug_line    0x0000be62       0xb2 D:\Project\MyProject1\mkrtos_real\mkrtos_sdk\Debug\libmkrtos_sdk.a(strncpy.o)
 .debug_line    0x0000bf14       0x5e D:\Project\MyProject1\mkrtos_real\mkrtos_sdk\Debug\libmkrtos_sdk.a(strrchr.o)
 .debug_line    0x0000bf72       0xc7 D:\Project\MyProject1\mkrtos_real\mkrtos_sdk\Debug\libmkrtos_sdk.a(strstr.o)
 .debug_line    0x0000c039       0xeb D:\Project\MyProject1\mkrtos_real\mkrtos_sdk\Debug\libmkrtos_sdk.a(strtol.o)
 .debug_line    0x0000c124       0xee D:\Project\MyProject1\mkrtos_real\mkrtos_sdk\Debug\libmkrtos_sdk.a(strtoll.o)
 .debug_line    0x0000c212      0x129 D:\Project\MyProject1\mkrtos_real\mkrtos_sdk\Debug\libmkrtos_sdk.a(strtoul.o)
 .debug_line    0x0000c33b      0x132 D:\Project\MyProject1\mkrtos_real\mkrtos_sdk\Debug\libmkrtos_sdk.a(strtoull.o)
 .debug_line    0x0000c46d      0x176 D:\Project\MyProject1\mkrtos_real\mkrtos_sdk\Debug\libmkrtos_sdk.a(vsnprintf.o)
 .debug_line    0x0000c5e3       0xdb D:\Project\MyProject1\mkrtos_real\mkrtos_sdk\Debug\libmkrtos_sdk.a(vsprintf.o)
 .debug_line    0x0000c6be      0x12a D:\Project\MyProject1\mkrtos_real\mkrtos_sdk\Debug\libmkrtos_sdk.a(vsscanf.o)
 .debug_line    0x0000c7e8     0x1363 D:\Project\MyProject1\mkrtos_real\mkrtos_sdk\Debug\libmkrtos_sdk.a(dyn_syscalls.o)
 .debug_line    0x0000db4b       0x58 D:\Project\MyProject1\mkrtos_real\mkrtos_sdk\Debug\libmkrtos_sdk.a(start.o)
 .debug_line    0x0000dba3      0x207 D:\Project\MyProject1\mkrtos_real\mkrtos_sdk\Debug\libmkrtos_sdk.a(stackgap-g.o)
 .debug_line    0x0000ddaa       0x6f D:\Project\MyProject1\mkrtos_real\mkrtos_sdk\Debug\libmkrtos_sdk.a(start.o)
 .debug_line    0x0000de19      0x135 D:\Project\MyProject1\mkrtos_real\mkrtos_sdk\Debug\libmkrtos_sdk.a(gmtime_r.o)
 .debug_line    0x0000df4e       0x62 D:\Project\MyProject1\mkrtos_real\mkrtos_sdk\Debug\libmkrtos_sdk.a(isleap.o)
 .debug_line    0x0000dfb0       0x4e D:\Project\MyProject1\mkrtos_real\mkrtos_sdk\Debug\libmkrtos_sdk.a(time_table_spd.o)
 .debug_line    0x0000dffe       0x48 D:\Project\MyProject1\mkrtos_real\mkrtos_sdk\Debug\libmkrtos_sdk.a(timezone.o)
 .debug_line    0x0000e046       0x61 D:\Project\MyProject1\mkrtos_real\mkrtos_sdk\Debug\libmkrtos_sdk.a(fdglue.o)
 .debug_line    0x0000e0a7      0x1c6 D:\Project\MyProject1\mkrtos_real\mkrtos_sdk\Debug\libmkrtos_sdk.a(fdglue2.o)
 .debug_line    0x0000e26d      0x193 D:\Project\MyProject1\mkrtos_real\mkrtos_sdk\Debug\libmkrtos_sdk.a(fgetc_unlocked.o)
 .debug_line    0x0000e400       0xd4 D:\Project\MyProject1\mkrtos_real\mkrtos_sdk\Debug\libmkrtos_sdk.a(__ltostr.o)
 .debug_line    0x0000e4d4      0x343 D:\Project\MyProject1\mkrtos_real\mkrtos_sdk\Debug\libmkrtos_sdk.a(__v_scanf.o)
 .debug_line    0x0000e817       0x44 D:\Project\MyProject1\mkrtos_real\mkrtos_sdk\Debug\libmkrtos_sdk.a(errlistu.o)
 .debug_line    0x0000e85b       0x5f D:\Project\MyProject1\mkrtos_real\mkrtos_sdk\Debug\libmkrtos_sdk.a(isalnum.o)
 .debug_line    0x0000e8ba       0x5a D:\Project\MyProject1\mkrtos_real\mkrtos_sdk\Debug\libmkrtos_sdk.a(isspace.o)
 .debug_line    0x0000e914       0x60 D:\Project\MyProject1\mkrtos_real\mkrtos_sdk\Debug\libmkrtos_sdk.a(isxdigit.o)
 .debug_line    0x0000e974       0xa9 D:\Project\MyProject1\mkrtos_real\mkrtos_sdk\Debug\libmkrtos_sdk.a(memccpy.o)
 .debug_line    0x0000ea1d       0xb3 D:\Project\MyProject1\mkrtos_real\mkrtos_sdk\Debug\libmkrtos_sdk.a(sigjmp.o)
 .debug_line    0x0000ead0       0x5d D:\Project\MyProject1\mkrtos_real\mkrtos_sdk\Debug\libmkrtos_sdk.a(arm_set_tls.o)
 .debug_line    0x0000eb2d       0x44 D:\Project\MyProject1\mkrtos_real\mkrtos_sdk\Debug\libmkrtos_sdk.a(__main.o)
 .debug_line    0x0000eb71       0x56 D:\Project\MyProject1\mkrtos_real\mkrtos_sdk\Debug\libmkrtos_sdk.a(reloc.o)
 .debug_line    0x0000ebc7      0x167 D:\Project\MyProject1\mkrtos_real\mkrtos_sdk\Debug\libmkrtos_sdk.a(feof.o)

.debug_str      0x00000000    0x144d4
 .debug_str     0x00000000    0x12ef6 ./src/tcc/tcc.o
                              0x137cc (size before relaxing)
 .debug_str     0x00012ef6       0x68 D:\Project\MyProject1\mkrtos_real\mkrtos_sdk\Debug\libmkrtos_sdk.a(localtime.o)
                                0x23e (size before relaxing)
 .debug_str     0x00012f5e       0x50 D:\Project\MyProject1\mkrtos_real\mkrtos_sdk\Debug\libmkrtos_sdk.a(localtime_r.o)
                                0x25b (size before relaxing)
 .debug_str     0x00012fae       0x89 D:\Project\MyProject1\mkrtos_real\mkrtos_sdk\Debug\libmkrtos_sdk.a(tzfile.o)
                                0x29a (size before relaxing)
 .debug_str     0x00013037       0x86 D:\Project\MyProject1\mkrtos_real\mkrtos_sdk\Debug\libmkrtos_sdk.a(fclose.o)
                                0x2cf (size before relaxing)
 .debug_str     0x000130bd       0x64 D:\Project\MyProject1\mkrtos_real\mkrtos_sdk\Debug\libmkrtos_sdk.a(fdopen.o)
                                0x2dc (size before relaxing)
 .debug_str     0x00013121       0x8d D:\Project\MyProject1\mkrtos_real\mkrtos_sdk\Debug\libmkrtos_sdk.a(fflush.o)
                                0x349 (size before relaxing)
 .debug_str     0x000131ae       0x41 D:\Project\MyProject1\mkrtos_real\mkrtos_sdk\Debug\libmkrtos_sdk.a(fopen.o)
                                0x2d2 (size before relaxing)
 .debug_str     0x000131ef       0x39 D:\Project\MyProject1\mkrtos_real\mkrtos_sdk\Debug\libmkrtos_sdk.a(fprintf.o)
                                0x211 (size before relaxing)
 .debug_str     0x00013228       0x52 D:\Project\MyProject1\mkrtos_real\mkrtos_sdk\Debug\libmkrtos_sdk.a(fputc_unlocked.o)
                                0x2e4 (size before relaxing)
 .debug_str     0x0001327a       0x45 D:\Project\MyProject1\mkrtos_real\mkrtos_sdk\Debug\libmkrtos_sdk.a(fputs.o)
                                0x2bc (size before relaxing)
 .debug_str     0x000132bf       0x63 D:\Project\MyProject1\mkrtos_real\mkrtos_sdk\Debug\libmkrtos_sdk.a(fread.o)
                                0x2ec (size before relaxing)
 .debug_str     0x00013322       0x3c D:\Project\MyProject1\mkrtos_real\mkrtos_sdk\Debug\libmkrtos_sdk.a(fseek.o)
                                0x2c8 (size before relaxing)
 .debug_str     0x0001335e       0x35 D:\Project\MyProject1\mkrtos_real\mkrtos_sdk\Debug\libmkrtos_sdk.a(ftell.o)
                                0x2aa (size before relaxing)
 .debug_str     0x00013393       0x3a D:\Project\MyProject1\mkrtos_real\mkrtos_sdk\Debug\libmkrtos_sdk.a(fwrite.o)
                                0x338 (size before relaxing)
 .debug_str     0x000133cd       0x27 D:\Project\MyProject1\mkrtos_real\mkrtos_sdk\Debug\libmkrtos_sdk.a(printf.o)
                                0x1fc (size before relaxing)
 .debug_str     0x000133f4       0x7d D:\Project\MyProject1\mkrtos_real\mkrtos_sdk\Debug\libmkrtos_sdk.a(stderr.o)
                                0x2fd (size before relaxing)
 .debug_str     0x00013471       0x4f D:\Project\MyProject1\mkrtos_real\mkrtos_sdk\Debug\libmkrtos_sdk.a(stdin.o)
                                0x321 (size before relaxing)
 .debug_str     0x000134c0       0x3d D:\Project\MyProject1\mkrtos_real\mkrtos_sdk\Debug\libmkrtos_sdk.a(stdout.o)
                                0x30a (size before relaxing)
 .debug_str     0x000134fd       0x4f D:\Project\MyProject1\mkrtos_real\mkrtos_sdk\Debug\libmkrtos_sdk.a(vfprintf.o)
                                0x300 (size before relaxing)
 .debug_str     0x0001354c       0x28 D:\Project\MyProject1\mkrtos_real\mkrtos_sdk\Debug\libmkrtos_sdk.a(vprintf.o)
                                0x232 (size before relaxing)
 .debug_str     0x00013574       0x35 D:\Project\MyProject1\mkrtos_real\mkrtos_sdk\Debug\libmkrtos_sdk.a(__getcwd.o)
                                0x1f9 (size before relaxing)
 .debug_str     0x000135a9       0x34 D:\Project\MyProject1\mkrtos_real\mkrtos_sdk\Debug\libmkrtos_sdk.a(__mmap.o)
                                0x20b (size before relaxing)
 .debug_str     0x000135dd       0x22 D:\Project\MyProject1\mkrtos_real\mkrtos_sdk\Debug\libmkrtos_sdk.a(__time.o)
                                0x221 (size before relaxing)
 .debug_str     0x000135ff       0xdc D:\Project\MyProject1\mkrtos_real\mkrtos_sdk\Debug\libmkrtos_sdk.a(__v_printf.o)
                                0x305 (size before relaxing)
 .debug_str     0x000136db       0xc9 D:\Project\MyProject1\mkrtos_real\mkrtos_sdk\Debug\libmkrtos_sdk.a(alloc.o)
                                0x2c1 (size before relaxing)
 .debug_str     0x000137a4       0x5a D:\Project\MyProject1\mkrtos_real\mkrtos_sdk\Debug\libmkrtos_sdk.a(atexit.o)
                                0x215 (size before relaxing)
 .debug_str     0x000137fe       0x25 D:\Project\MyProject1\mkrtos_real\mkrtos_sdk\Debug\libmkrtos_sdk.a(atol.o)
                                0x1ca (size before relaxing)
 .debug_str     0x00013823       0x36 D:\Project\MyProject1\mkrtos_real\mkrtos_sdk\Debug\libmkrtos_sdk.a(errno_location.o)
                                0x1e7 (size before relaxing)
 .debug_str     0x00013859       0x2a D:\Project\MyProject1\mkrtos_real\mkrtos_sdk\Debug\libmkrtos_sdk.a(getenv.o)
                                0x1e6 (size before relaxing)
 .debug_str     0x00013883       0x30 D:\Project\MyProject1\mkrtos_real\mkrtos_sdk\Debug\libmkrtos_sdk.a(htonl.o)
                                0x1d9 (size before relaxing)
 .debug_str     0x000138b3       0x6f D:\Project\MyProject1\mkrtos_real\mkrtos_sdk\Debug\libmkrtos_sdk.a(isatty.o)
                                0x23c (size before relaxing)
 .debug_str     0x00013922       0x3c D:\Project\MyProject1\mkrtos_real\mkrtos_sdk\Debug\libmkrtos_sdk.a(longjmp.o)
                                0x230 (size before relaxing)
 .debug_str     0x0001395e       0x22 D:\Project\MyProject1\mkrtos_real\mkrtos_sdk\Debug\libmkrtos_sdk.a(memcmp.o)
                                0x1c8 (size before relaxing)
 .debug_str     0x00013980       0x22 D:\Project\MyProject1\mkrtos_real\mkrtos_sdk\Debug\libmkrtos_sdk.a(memcpy.o)
                                0x1cc (size before relaxing)
 .debug_str     0x000139a2       0x23 D:\Project\MyProject1\mkrtos_real\mkrtos_sdk\Debug\libmkrtos_sdk.a(memmove.o)
                                0x1cf (size before relaxing)
 .debug_str     0x000139c5       0x22 D:\Project\MyProject1\mkrtos_real\mkrtos_sdk\Debug\libmkrtos_sdk.a(memset.o)
                                0x1cd (size before relaxing)
 .debug_str     0x000139e7       0x37 D:\Project\MyProject1\mkrtos_real\mkrtos_sdk\Debug\libmkrtos_sdk.a(qsort.o)
                                0x201 (size before relaxing)
 .debug_str     0x00013a1e       0x32 D:\Project\MyProject1\mkrtos_real\mkrtos_sdk\Debug\libmkrtos_sdk.a(rand.o)
                                0x1d2 (size before relaxing)
 .debug_str     0x00013a50       0x22 D:\Project\MyProject1\mkrtos_real\mkrtos_sdk\Debug\libmkrtos_sdk.a(rand_r.o)
                                0x1d1 (size before relaxing)
 .debug_str     0x00013a72       0x28 D:\Project\MyProject1\mkrtos_real\mkrtos_sdk\Debug\libmkrtos_sdk.a(remove.o)
                                0x1f0 (size before relaxing)
 .debug_str     0x00013a9a       0x3f D:\Project\MyProject1\mkrtos_real\mkrtos_sdk\Debug\libmkrtos_sdk.a(sigprocmask.o)
                                0x1f4 (size before relaxing)
 .debug_str     0x00013ad9       0x24 D:\Project\MyProject1\mkrtos_real\mkrtos_sdk\Debug\libmkrtos_sdk.a(snprintf.o)
                                0x200 (size before relaxing)
 .debug_str     0x00013afd       0x2c D:\Project\MyProject1\mkrtos_real\mkrtos_sdk\Debug\libmkrtos_sdk.a(sprintf.o)
                                0x1ff (size before relaxing)
 .debug_str     0x00013b29       0x2a D:\Project\MyProject1\mkrtos_real\mkrtos_sdk\Debug\libmkrtos_sdk.a(sscanf.o)
                                0x1ee (size before relaxing)
 .debug_str     0x00013b53       0x22 D:\Project\MyProject1\mkrtos_real\mkrtos_sdk\Debug\libmkrtos_sdk.a(strchr.o)
                                0x1c0 (size before relaxing)
 .debug_str     0x00013b75       0x2d D:\Project\MyProject1\mkrtos_real\mkrtos_sdk\Debug\libmkrtos_sdk.a(strcmp.o)
                                0x1d5 (size before relaxing)
 .debug_str     0x00013ba2       0x22 D:\Project\MyProject1\mkrtos_real\mkrtos_sdk\Debug\libmkrtos_sdk.a(strcpy.o)
                                0x1d5 (size before relaxing)
 .debug_str     0x00013bc4       0x45 D:\Project\MyProject1\mkrtos_real\mkrtos_sdk\Debug\libmkrtos_sdk.a(strerror.o)
                                0x1ee (size before relaxing)
 .debug_str     0x00013c09       0x29 D:\Project\MyProject1\mkrtos_real\mkrtos_sdk\Debug\libmkrtos_sdk.a(strlen.o)
                                0x1f2 (size before relaxing)
 .debug_str     0x00013c32       0x28 D:\Project\MyProject1\mkrtos_real\mkrtos_sdk\Debug\libmkrtos_sdk.a(strncmp.o)
                                0x1ce (size before relaxing)
 .debug_str     0x00013c5a       0x2b D:\Project\MyProject1\mkrtos_real\mkrtos_sdk\Debug\libmkrtos_sdk.a(strncpy.o)
                                0x1d6 (size before relaxing)
 .debug_str     0x00013c85       0x23 D:\Project\MyProject1\mkrtos_real\mkrtos_sdk\Debug\libmkrtos_sdk.a(strrchr.o)
                                0x1c2 (size before relaxing)
 .debug_str     0x00013ca8       0x32 D:\Project\MyProject1\mkrtos_real\mkrtos_sdk\Debug\libmkrtos_sdk.a(strstr.o)
                                0x1eb (size before relaxing)
 .debug_str     0x00013cda       0x3e D:\Project\MyProject1\mkrtos_real\mkrtos_sdk\Debug\libmkrtos_sdk.a(strtol.o)
                                0x208 (size before relaxing)
 .debug_str     0x00013d18       0x23 D:\Project\MyProject1\mkrtos_real\mkrtos_sdk\Debug\libmkrtos_sdk.a(strtoll.o)
                                0x20b (size before relaxing)
 .debug_str     0x00013d3b       0x3c D:\Project\MyProject1\mkrtos_real\mkrtos_sdk\Debug\libmkrtos_sdk.a(strtoul.o)
                                0x213 (size before relaxing)
 .debug_str     0x00013d77       0x24 D:\Project\MyProject1\mkrtos_real\mkrtos_sdk\Debug\libmkrtos_sdk.a(strtoull.o)
                                0x215 (size before relaxing)
 .debug_str     0x00013d9b       0x35 D:\Project\MyProject1\mkrtos_real\mkrtos_sdk\Debug\libmkrtos_sdk.a(vsnprintf.o)
                                0x240 (size before relaxing)
 .debug_str     0x00013dd0       0x24 D:\Project\MyProject1\mkrtos_real\mkrtos_sdk\Debug\libmkrtos_sdk.a(vsprintf.o)
                                0x213 (size before relaxing)
 .debug_str     0x00013df4       0x59 D:\Project\MyProject1\mkrtos_real\mkrtos_sdk\Debug\libmkrtos_sdk.a(vsscanf.o)
                                0x235 (size before relaxing)
 .debug_str     0x00013e4d      0x1f7 D:\Project\MyProject1\mkrtos_real\mkrtos_sdk\Debug\libmkrtos_sdk.a(stackgap-g.o)
                                0x49a (size before relaxing)
 .debug_str     0x00014044       0x42 D:\Project\MyProject1\mkrtos_real\mkrtos_sdk\Debug\libmkrtos_sdk.a(gmtime_r.o)
                                0x24a (size before relaxing)
 .debug_str     0x00014086       0x26 D:\Project\MyProject1\mkrtos_real\mkrtos_sdk\Debug\libmkrtos_sdk.a(isleap.o)
                                0x1d4 (size before relaxing)
 .debug_str     0x000140ac       0x2e D:\Project\MyProject1\mkrtos_real\mkrtos_sdk\Debug\libmkrtos_sdk.a(time_table_spd.o)
                                0x1d4 (size before relaxing)
 .debug_str     0x000140da       0x28 D:\Project\MyProject1\mkrtos_real\mkrtos_sdk\Debug\libmkrtos_sdk.a(timezone.o)
                                0x151 (size before relaxing)
 .debug_str     0x00014102       0x27 D:\Project\MyProject1\mkrtos_real\mkrtos_sdk\Debug\libmkrtos_sdk.a(fdglue.o)
                                0x1df (size before relaxing)
 .debug_str     0x00014129       0xde D:\Project\MyProject1\mkrtos_real\mkrtos_sdk\Debug\libmkrtos_sdk.a(fdglue2.o)
                                0x3d0 (size before relaxing)
 .debug_str     0x00014207       0x3d D:\Project\MyProject1\mkrtos_real\mkrtos_sdk\Debug\libmkrtos_sdk.a(fgetc_unlocked.o)
                                0x2e1 (size before relaxing)
 .debug_str     0x00014244       0x2b D:\Project\MyProject1\mkrtos_real\mkrtos_sdk\Debug\libmkrtos_sdk.a(__ltostr.o)
                                0x1ed (size before relaxing)
 .debug_str     0x0001426f       0xa2 D:\Project\MyProject1\mkrtos_real\mkrtos_sdk\Debug\libmkrtos_sdk.a(__v_scanf.o)
                                0x2c7 (size before relaxing)
 .debug_str     0x00014311       0x24 D:\Project\MyProject1\mkrtos_real\mkrtos_sdk\Debug\libmkrtos_sdk.a(errlistu.o)
                                0x152 (size before relaxing)
 .debug_str     0x00014335       0x23 D:\Project\MyProject1\mkrtos_real\mkrtos_sdk\Debug\libmkrtos_sdk.a(isalnum.o)
                                0x139 (size before relaxing)
 .debug_str     0x00014358       0x33 D:\Project\MyProject1\mkrtos_real\mkrtos_sdk\Debug\libmkrtos_sdk.a(isspace.o)
                                0x141 (size before relaxing)
 .debug_str     0x0001438b       0x35 D:\Project\MyProject1\mkrtos_real\mkrtos_sdk\Debug\libmkrtos_sdk.a(isxdigit.o)
                                0x143 (size before relaxing)
 .debug_str     0x000143c0       0x23 D:\Project\MyProject1\mkrtos_real\mkrtos_sdk\Debug\libmkrtos_sdk.a(memccpy.o)
                                0x1cf (size before relaxing)
 .debug_str     0x000143e3       0x39 D:\Project\MyProject1\mkrtos_real\mkrtos_sdk\Debug\libmkrtos_sdk.a(sigjmp.o)
                                0x22d (size before relaxing)
 .debug_str     0x0001441c       0x35 D:\Project\MyProject1\mkrtos_real\mkrtos_sdk\Debug\libmkrtos_sdk.a(__main.o)
                                0x157 (size before relaxing)
 .debug_str     0x00014451       0x5e D:\Project\MyProject1\mkrtos_real\mkrtos_sdk\Debug\libmkrtos_sdk.a(reloc.o)
                                0x18e (size before relaxing)
 .debug_str     0x000144af       0x25 D:\Project\MyProject1\mkrtos_real\mkrtos_sdk\Debug\libmkrtos_sdk.a(feof.o)
                                0x29c (size before relaxing)

.comment        0x00000000       0x70
 .comment       0x00000000       0x70 ./src/tcc/tcc.o
                                 0x71 (size before relaxing)
 .comment       0x00000000       0x71 D:\Project\MyProject1\mkrtos_real\mkrtos_sdk\Debug\libmkrtos_sdk.a(localtime.o)
 .comment       0x00000000       0x71 D:\Project\MyProject1\mkrtos_real\mkrtos_sdk\Debug\libmkrtos_sdk.a(localtime_r.o)
 .comment       0x00000000       0x71 D:\Project\MyProject1\mkrtos_real\mkrtos_sdk\Debug\libmkrtos_sdk.a(tzfile.o)
 .comment       0x00000000       0x71 D:\Project\MyProject1\mkrtos_real\mkrtos_sdk\Debug\libmkrtos_sdk.a(fclose.o)
 .comment       0x00000000       0x71 D:\Project\MyProject1\mkrtos_real\mkrtos_sdk\Debug\libmkrtos_sdk.a(fdopen.o)
 .comment       0x00000000       0x71 D:\Project\MyProject1\mkrtos_real\mkrtos_sdk\Debug\libmkrtos_sdk.a(fflush.o)
 .comment       0x00000000       0x71 D:\Project\MyProject1\mkrtos_real\mkrtos_sdk\Debug\libmkrtos_sdk.a(fopen.o)
 .comment       0x00000000       0x71 D:\Project\MyProject1\mkrtos_real\mkrtos_sdk\Debug\libmkrtos_sdk.a(fprintf.o)
 .comment       0x00000000       0x71 D:\Project\MyProject1\mkrtos_real\mkrtos_sdk\Debug\libmkrtos_sdk.a(fputc_unlocked.o)
 .comment       0x00000000       0x71 D:\Project\MyProject1\mkrtos_real\mkrtos_sdk\Debug\libmkrtos_sdk.a(fputs.o)
 .comment       0x00000000       0x71 D:\Project\MyProject1\mkrtos_real\mkrtos_sdk\Debug\libmkrtos_sdk.a(fread.o)
 .comment       0x00000000       0x71 D:\Project\MyProject1\mkrtos_real\mkrtos_sdk\Debug\libmkrtos_sdk.a(fseek.o)
 .comment       0x00000000       0x71 D:\Project\MyProject1\mkrtos_real\mkrtos_sdk\Debug\libmkrtos_sdk.a(ftell.o)
 .comment       0x00000000       0x71 D:\Project\MyProject1\mkrtos_real\mkrtos_sdk\Debug\libmkrtos_sdk.a(fwrite.o)
 .comment       0x00000000       0x71 D:\Project\MyProject1\mkrtos_real\mkrtos_sdk\Debug\libmkrtos_sdk.a(printf.o)
 .comment       0x00000000       0x71 D:\Project\MyProject1\mkrtos_real\mkrtos_sdk\Debug\libmkrtos_sdk.a(stderr.o)
 .comment       0x00000000       0x71 D:\Project\MyProject1\mkrtos_real\mkrtos_sdk\Debug\libmkrtos_sdk.a(stdin.o)
 .comment       0x00000000       0x71 D:\Project\MyProject1\mkrtos_real\mkrtos_sdk\Debug\libmkrtos_sdk.a(stdout.o)
 .comment       0x00000000       0x71 D:\Project\MyProject1\mkrtos_real\mkrtos_sdk\Debug\libmkrtos_sdk.a(vfprintf.o)
 .comment       0x00000000       0x71 D:\Project\MyProject1\mkrtos_real\mkrtos_sdk\Debug\libmkrtos_sdk.a(vprintf.o)
 .comment       0x00000000       0x71 D:\Project\MyProject1\mkrtos_real\mkrtos_sdk\Debug\libmkrtos_sdk.a(__getcwd.o)
 .comment       0x00000000       0x71 D:\Project\MyProject1\mkrtos_real\mkrtos_sdk\Debug\libmkrtos_sdk.a(__mmap.o)
 .comment       0x00000000       0x71 D:\Project\MyProject1\mkrtos_real\mkrtos_sdk\Debug\libmkrtos_sdk.a(__time.o)
 .comment       0x00000000       0x71 D:\Project\MyProject1\mkrtos_real\mkrtos_sdk\Debug\libmkrtos_sdk.a(__v_printf.o)
 .comment       0x00000000       0x71 D:\Project\MyProject1\mkrtos_real\mkrtos_sdk\Debug\libmkrtos_sdk.a(alloc.o)
 .comment       0x00000000       0x71 D:\Project\MyProject1\mkrtos_real\mkrtos_sdk\Debug\libmkrtos_sdk.a(atexit.o)
 .comment       0x00000000       0x71 D:\Project\MyProject1\mkrtos_real\mkrtos_sdk\Debug\libmkrtos_sdk.a(atol.o)
 .comment       0x00000000       0x71 D:\Project\MyProject1\mkrtos_real\mkrtos_sdk\Debug\libmkrtos_sdk.a(errno_location.o)
 .comment       0x00000000       0x71 D:\Project\MyProject1\mkrtos_real\mkrtos_sdk\Debug\libmkrtos_sdk.a(getenv.o)
 .comment       0x00000000       0x71 D:\Project\MyProject1\mkrtos_real\mkrtos_sdk\Debug\libmkrtos_sdk.a(htonl.o)
 .comment       0x00000000       0x71 D:\Project\MyProject1\mkrtos_real\mkrtos_sdk\Debug\libmkrtos_sdk.a(isatty.o)
 .comment       0x00000000       0x71 D:\Project\MyProject1\mkrtos_real\mkrtos_sdk\Debug\libmkrtos_sdk.a(longjmp.o)
 .comment       0x00000000       0x71 D:\Project\MyProject1\mkrtos_real\mkrtos_sdk\Debug\libmkrtos_sdk.a(memcmp.o)
 .comment       0x00000000       0x71 D:\Project\MyProject1\mkrtos_real\mkrtos_sdk\Debug\libmkrtos_sdk.a(memcpy.o)
 .comment       0x00000000       0x71 D:\Project\MyProject1\mkrtos_real\mkrtos_sdk\Debug\libmkrtos_sdk.a(memmove.o)
 .comment       0x00000000       0x71 D:\Project\MyProject1\mkrtos_real\mkrtos_sdk\Debug\libmkrtos_sdk.a(memset.o)
 .comment       0x00000000       0x71 D:\Project\MyProject1\mkrtos_real\mkrtos_sdk\Debug\libmkrtos_sdk.a(qsort.o)
 .comment       0x00000000       0x71 D:\Project\MyProject1\mkrtos_real\mkrtos_sdk\Debug\libmkrtos_sdk.a(rand.o)
 .comment       0x00000000       0x71 D:\Project\MyProject1\mkrtos_real\mkrtos_sdk\Debug\libmkrtos_sdk.a(rand_r.o)
 .comment       0x00000000       0x71 D:\Project\MyProject1\mkrtos_real\mkrtos_sdk\Debug\libmkrtos_sdk.a(remove.o)
 .comment       0x00000000       0x71 D:\Project\MyProject1\mkrtos_real\mkrtos_sdk\Debug\libmkrtos_sdk.a(sigprocmask.o)
 .comment       0x00000000       0x71 D:\Project\MyProject1\mkrtos_real\mkrtos_sdk\Debug\libmkrtos_sdk.a(snprintf.o)
 .comment       0x00000000       0x71 D:\Project\MyProject1\mkrtos_real\mkrtos_sdk\Debug\libmkrtos_sdk.a(sprintf.o)
 .comment       0x00000000       0x71 D:\Project\MyProject1\mkrtos_real\mkrtos_sdk\Debug\libmkrtos_sdk.a(sscanf.o)
 .comment       0x00000000       0x71 D:\Project\MyProject1\mkrtos_real\mkrtos_sdk\Debug\libmkrtos_sdk.a(strchr.o)
 .comment       0x00000000       0x71 D:\Project\MyProject1\mkrtos_real\mkrtos_sdk\Debug\libmkrtos_sdk.a(strcmp.o)
 .comment       0x00000000       0x71 D:\Project\MyProject1\mkrtos_real\mkrtos_sdk\Debug\libmkrtos_sdk.a(strcpy.o)
 .comment       0x00000000       0x71 D:\Project\MyProject1\mkrtos_real\mkrtos_sdk\Debug\libmkrtos_sdk.a(strerror.o)
 .comment       0x00000000       0x71 D:\Project\MyProject1\mkrtos_real\mkrtos_sdk\Debug\libmkrtos_sdk.a(strlen.o)
 .comment       0x00000000       0x71 D:\Project\MyProject1\mkrtos_real\mkrtos_sdk\Debug\libmkrtos_sdk.a(strncmp.o)
 .comment       0x00000000       0x71 D:\Project\MyProject1\mkrtos_real\mkrtos_sdk\Debug\libmkrtos_sdk.a(strncpy.o)
 .comment       0x00000000       0x71 D:\Project\MyProject1\mkrtos_real\mkrtos_sdk\Debug\libmkrtos_sdk.a(strrchr.o)
 .comment       0x00000000       0x71 D:\Project\MyProject1\mkrtos_real\mkrtos_sdk\Debug\libmkrtos_sdk.a(strstr.o)
 .comment       0x00000000       0x71 D:\Project\MyProject1\mkrtos_real\mkrtos_sdk\Debug\libmkrtos_sdk.a(strtol.o)
 .comment       0x00000000       0x71 D:\Project\MyProject1\mkrtos_real\mkrtos_sdk\Debug\libmkrtos_sdk.a(strtoll.o)
 .comment       0x00000000       0x71 D:\Project\MyProject1\mkrtos_real\mkrtos_sdk\Debug\libmkrtos_sdk.a(strtoul.o)
 .comment       0x00000000       0x71 D:\Project\MyProject1\mkrtos_real\mkrtos_sdk\Debug\libmkrtos_sdk.a(strtoull.o)
 .comment       0x00000000       0x71 D:\Project\MyProject1\mkrtos_real\mkrtos_sdk\Debug\libmkrtos_sdk.a(vsnprintf.o)
 .comment       0x00000000       0x71 D:\Project\MyProject1\mkrtos_real\mkrtos_sdk\Debug\libmkrtos_sdk.a(vsprintf.o)
 .comment       0x00000000       0x71 D:\Project\MyProject1\mkrtos_real\mkrtos_sdk\Debug\libmkrtos_sdk.a(vsscanf.o)
 .comment       0x00000000       0x71 D:\Project\MyProject1\mkrtos_real\mkrtos_sdk\Debug\libmkrtos_sdk.a(stackgap-g.o)
 .comment       0x00000000       0x71 D:\Project\MyProject1\mkrtos_real\mkrtos_sdk\Debug\libmkrtos_sdk.a(gmtime_r.o)
 .comment       0x00000000       0x71 D:\Project\MyProject1\mkrtos_real\mkrtos_sdk\Debug\libmkrtos_sdk.a(isleap.o)
 .comment       0x00000000       0x71 D:\Project\MyProject1\mkrtos_real\mkrtos_sdk\Debug\libmkrtos_sdk.a(time_table_spd.o)
 .comment       0x00000000       0x71 D:\Project\MyProject1\mkrtos_real\mkrtos_sdk\Debug\libmkrtos_sdk.a(timezone.o)
 .comment       0x00000000       0x71 D:\Project\MyProject1\mkrtos_real\mkrtos_sdk\Debug\libmkrtos_sdk.a(fdglue.o)
 .comment       0x00000000       0x71 D:\Project\MyProject1\mkrtos_real\mkrtos_sdk\Debug\libmkrtos_sdk.a(fdglue2.o)
 .comment       0x00000000       0x71 D:\Project\MyProject1\mkrtos_real\mkrtos_sdk\Debug\libmkrtos_sdk.a(fgetc_unlocked.o)
 .comment       0x00000000       0x71 D:\Project\MyProject1\mkrtos_real\mkrtos_sdk\Debug\libmkrtos_sdk.a(__ltostr.o)
 .comment       0x00000000       0x71 D:\Project\MyProject1\mkrtos_real\mkrtos_sdk\Debug\libmkrtos_sdk.a(__v_scanf.o)
 .comment       0x00000000       0x71 D:\Project\MyProject1\mkrtos_real\mkrtos_sdk\Debug\libmkrtos_sdk.a(errlistu.o)
 .comment       0x00000000       0x71 D:\Project\MyProject1\mkrtos_real\mkrtos_sdk\Debug\libmkrtos_sdk.a(isalnum.o)
 .comment       0x00000000       0x71 D:\Project\MyProject1\mkrtos_real\mkrtos_sdk\Debug\libmkrtos_sdk.a(isspace.o)
 .comment       0x00000000       0x71 D:\Project\MyProject1\mkrtos_real\mkrtos_sdk\Debug\libmkrtos_sdk.a(isxdigit.o)
 .comment       0x00000000       0x71 D:\Project\MyProject1\mkrtos_real\mkrtos_sdk\Debug\libmkrtos_sdk.a(memccpy.o)
 .comment       0x00000000       0x71 D:\Project\MyProject1\mkrtos_real\mkrtos_sdk\Debug\libmkrtos_sdk.a(sigjmp.o)
 .comment       0x00000000       0x71 D:\Project\MyProject1\mkrtos_real\mkrtos_sdk\Debug\libmkrtos_sdk.a(__main.o)
 .comment       0x00000000       0x71 D:\Project\MyProject1\mkrtos_real\mkrtos_sdk\Debug\libmkrtos_sdk.a(reloc.o)
 .comment       0x00000000       0x71 D:\Project\MyProject1\mkrtos_real\mkrtos_sdk\Debug\libmkrtos_sdk.a(feof.o)

.ARM.attributes
                0x00000000       0x31
 .ARM.attributes
                0x00000000       0x33 ./src/tcc/tcc.o
 .ARM.attributes
                0x00000033       0x33 D:\Project\MyProject1\mkrtos_real\mkrtos_sdk\Debug\libmkrtos_sdk.a(localtime.o)
 .ARM.attributes
                0x00000066       0x33 D:\Project\MyProject1\mkrtos_real\mkrtos_sdk\Debug\libmkrtos_sdk.a(localtime_r.o)
 .ARM.attributes
                0x00000099       0x33 D:\Project\MyProject1\mkrtos_real\mkrtos_sdk\Debug\libmkrtos_sdk.a(tzfile.o)
 .ARM.attributes
                0x000000cc       0x33 D:\Project\MyProject1\mkrtos_real\mkrtos_sdk\Debug\libmkrtos_sdk.a(fclose.o)
 .ARM.attributes
                0x000000ff       0x33 D:\Project\MyProject1\mkrtos_real\mkrtos_sdk\Debug\libmkrtos_sdk.a(fdopen.o)
 .ARM.attributes
                0x00000132       0x33 D:\Project\MyProject1\mkrtos_real\mkrtos_sdk\Debug\libmkrtos_sdk.a(fflush.o)
 .ARM.attributes
                0x00000165       0x33 D:\Project\MyProject1\mkrtos_real\mkrtos_sdk\Debug\libmkrtos_sdk.a(fopen.o)
 .ARM.attributes
                0x00000198       0x33 D:\Project\MyProject1\mkrtos_real\mkrtos_sdk\Debug\libmkrtos_sdk.a(fprintf.o)
 .ARM.attributes
                0x000001cb       0x33 D:\Project\MyProject1\mkrtos_real\mkrtos_sdk\Debug\libmkrtos_sdk.a(fputc_unlocked.o)
 .ARM.attributes
                0x000001fe       0x33 D:\Project\MyProject1\mkrtos_real\mkrtos_sdk\Debug\libmkrtos_sdk.a(fputs.o)
 .ARM.attributes
                0x00000231       0x33 D:\Project\MyProject1\mkrtos_real\mkrtos_sdk\Debug\libmkrtos_sdk.a(fread.o)
 .ARM.attributes
                0x00000264       0x33 D:\Project\MyProject1\mkrtos_real\mkrtos_sdk\Debug\libmkrtos_sdk.a(fseek.o)
 .ARM.attributes
                0x00000297       0x33 D:\Project\MyProject1\mkrtos_real\mkrtos_sdk\Debug\libmkrtos_sdk.a(ftell.o)
 .ARM.attributes
                0x000002ca       0x33 D:\Project\MyProject1\mkrtos_real\mkrtos_sdk\Debug\libmkrtos_sdk.a(fwrite.o)
 .ARM.attributes
                0x000002fd       0x33 D:\Project\MyProject1\mkrtos_real\mkrtos_sdk\Debug\libmkrtos_sdk.a(printf.o)
 .ARM.attributes
                0x00000330       0x33 D:\Project\MyProject1\mkrtos_real\mkrtos_sdk\Debug\libmkrtos_sdk.a(stderr.o)
 .ARM.attributes
                0x00000363       0x33 D:\Project\MyProject1\mkrtos_real\mkrtos_sdk\Debug\libmkrtos_sdk.a(stdin.o)
 .ARM.attributes
                0x00000396       0x33 D:\Project\MyProject1\mkrtos_real\mkrtos_sdk\Debug\libmkrtos_sdk.a(stdout.o)
 .ARM.attributes
                0x000003c9       0x33 D:\Project\MyProject1\mkrtos_real\mkrtos_sdk\Debug\libmkrtos_sdk.a(vfprintf.o)
 .ARM.attributes
                0x000003fc       0x33 D:\Project\MyProject1\mkrtos_real\mkrtos_sdk\Debug\libmkrtos_sdk.a(vprintf.o)
 .ARM.attributes
                0x0000042f       0x33 D:\Project\MyProject1\mkrtos_real\mkrtos_sdk\Debug\libmkrtos_sdk.a(__getcwd.o)
 .ARM.attributes
                0x00000462       0x33 D:\Project\MyProject1\mkrtos_real\mkrtos_sdk\Debug\libmkrtos_sdk.a(__mmap.o)
 .ARM.attributes
                0x00000495       0x33 D:\Project\MyProject1\mkrtos_real\mkrtos_sdk\Debug\libmkrtos_sdk.a(__time.o)
 .ARM.attributes
                0x000004c8       0x33 D:\Project\MyProject1\mkrtos_real\mkrtos_sdk\Debug\libmkrtos_sdk.a(__v_printf.o)
 .ARM.attributes
                0x000004fb       0x33 D:\Project\MyProject1\mkrtos_real\mkrtos_sdk\Debug\libmkrtos_sdk.a(alloc.o)
 .ARM.attributes
                0x0000052e       0x33 D:\Project\MyProject1\mkrtos_real\mkrtos_sdk\Debug\libmkrtos_sdk.a(atexit.o)
 .ARM.attributes
                0x00000561       0x33 D:\Project\MyProject1\mkrtos_real\mkrtos_sdk\Debug\libmkrtos_sdk.a(atol.o)
 .ARM.attributes
                0x00000594       0x33 D:\Project\MyProject1\mkrtos_real\mkrtos_sdk\Debug\libmkrtos_sdk.a(errno_location.o)
 .ARM.attributes
                0x000005c7       0x33 D:\Project\MyProject1\mkrtos_real\mkrtos_sdk\Debug\libmkrtos_sdk.a(getenv.o)
 .ARM.attributes
                0x000005fa       0x33 D:\Project\MyProject1\mkrtos_real\mkrtos_sdk\Debug\libmkrtos_sdk.a(htonl.o)
 .ARM.attributes
                0x0000062d       0x33 D:\Project\MyProject1\mkrtos_real\mkrtos_sdk\Debug\libmkrtos_sdk.a(isatty.o)
 .ARM.attributes
                0x00000660       0x33 D:\Project\MyProject1\mkrtos_real\mkrtos_sdk\Debug\libmkrtos_sdk.a(longjmp.o)
 .ARM.attributes
                0x00000693       0x33 D:\Project\MyProject1\mkrtos_real\mkrtos_sdk\Debug\libmkrtos_sdk.a(memcmp.o)
 .ARM.attributes
                0x000006c6       0x33 D:\Project\MyProject1\mkrtos_real\mkrtos_sdk\Debug\libmkrtos_sdk.a(memcpy.o)
 .ARM.attributes
                0x000006f9       0x33 D:\Project\MyProject1\mkrtos_real\mkrtos_sdk\Debug\libmkrtos_sdk.a(memmove.o)
 .ARM.attributes
                0x0000072c       0x33 D:\Project\MyProject1\mkrtos_real\mkrtos_sdk\Debug\libmkrtos_sdk.a(memset.o)
 .ARM.attributes
                0x0000075f       0x33 D:\Project\MyProject1\mkrtos_real\mkrtos_sdk\Debug\libmkrtos_sdk.a(qsort.o)
 .ARM.attributes
                0x00000792       0x33 D:\Project\MyProject1\mkrtos_real\mkrtos_sdk\Debug\libmkrtos_sdk.a(rand.o)
 .ARM.attributes
                0x000007c5       0x33 D:\Project\MyProject1\mkrtos_real\mkrtos_sdk\Debug\libmkrtos_sdk.a(rand_r.o)
 .ARM.attributes
                0x000007f8       0x33 D:\Project\MyProject1\mkrtos_real\mkrtos_sdk\Debug\libmkrtos_sdk.a(remove.o)
 .ARM.attributes
                0x0000082b       0x33 D:\Project\MyProject1\mkrtos_real\mkrtos_sdk\Debug\libmkrtos_sdk.a(sigprocmask.o)
 .ARM.attributes
                0x0000085e       0x33 D:\Project\MyProject1\mkrtos_real\mkrtos_sdk\Debug\libmkrtos_sdk.a(snprintf.o)
 .ARM.attributes
                0x00000891       0x33 D:\Project\MyProject1\mkrtos_real\mkrtos_sdk\Debug\libmkrtos_sdk.a(sprintf.o)
 .ARM.attributes
                0x000008c4       0x33 D:\Project\MyProject1\mkrtos_real\mkrtos_sdk\Debug\libmkrtos_sdk.a(sscanf.o)
 .ARM.attributes
                0x000008f7       0x33 D:\Project\MyProject1\mkrtos_real\mkrtos_sdk\Debug\libmkrtos_sdk.a(strchr.o)
 .ARM.attributes
                0x0000092a       0x33 D:\Project\MyProject1\mkrtos_real\mkrtos_sdk\Debug\libmkrtos_sdk.a(strcmp.o)
 .ARM.attributes
                0x0000095d       0x33 D:\Project\MyProject1\mkrtos_real\mkrtos_sdk\Debug\libmkrtos_sdk.a(strcpy.o)
 .ARM.attributes
                0x00000990       0x33 D:\Project\MyProject1\mkrtos_real\mkrtos_sdk\Debug\libmkrtos_sdk.a(strerror.o)
 .ARM.attributes
                0x000009c3       0x33 D:\Project\MyProject1\mkrtos_real\mkrtos_sdk\Debug\libmkrtos_sdk.a(strlen.o)
 .ARM.attributes
                0x000009f6       0x33 D:\Project\MyProject1\mkrtos_real\mkrtos_sdk\Debug\libmkrtos_sdk.a(strncmp.o)
 .ARM.attributes
                0x00000a29       0x33 D:\Project\MyProject1\mkrtos_real\mkrtos_sdk\Debug\libmkrtos_sdk.a(strncpy.o)
 .ARM.attributes
                0x00000a5c       0x33 D:\Project\MyProject1\mkrtos_real\mkrtos_sdk\Debug\libmkrtos_sdk.a(strrchr.o)
 .ARM.attributes
                0x00000a8f       0x33 D:\Project\MyProject1\mkrtos_real\mkrtos_sdk\Debug\libmkrtos_sdk.a(strstr.o)
 .ARM.attributes
                0x00000ac2       0x33 D:\Project\MyProject1\mkrtos_real\mkrtos_sdk\Debug\libmkrtos_sdk.a(strtol.o)
 .ARM.attributes
                0x00000af5       0x33 D:\Project\MyProject1\mkrtos_real\mkrtos_sdk\Debug\libmkrtos_sdk.a(strtoll.o)
 .ARM.attributes
                0x00000b28       0x33 D:\Project\MyProject1\mkrtos_real\mkrtos_sdk\Debug\libmkrtos_sdk.a(strtoul.o)
 .ARM.attributes
                0x00000b5b       0x33 D:\Project\MyProject1\mkrtos_real\mkrtos_sdk\Debug\libmkrtos_sdk.a(strtoull.o)
 .ARM.attributes
                0x00000b8e       0x33 D:\Project\MyProject1\mkrtos_real\mkrtos_sdk\Debug\libmkrtos_sdk.a(vsnprintf.o)
 .ARM.attributes
                0x00000bc1       0x33 D:\Project\MyProject1\mkrtos_real\mkrtos_sdk\Debug\libmkrtos_sdk.a(vsprintf.o)
 .ARM.attributes
                0x00000bf4       0x33 D:\Project\MyProject1\mkrtos_real\mkrtos_sdk\Debug\libmkrtos_sdk.a(vsscanf.o)
 .ARM.attributes
                0x00000c27       0x21 D:\Project\MyProject1\mkrtos_real\mkrtos_sdk\Debug\libmkrtos_sdk.a(dyn_syscalls.o)
 .ARM.attributes
                0x00000c48       0x21 D:\Project\MyProject1\mkrtos_real\mkrtos_sdk\Debug\libmkrtos_sdk.a(start.o)
 .ARM.attributes
                0x00000c69       0x33 D:\Project\MyProject1\mkrtos_real\mkrtos_sdk\Debug\libmkrtos_sdk.a(stackgap-g.o)
 .ARM.attributes
                0x00000c9c       0x21 D:\Project\MyProject1\mkrtos_real\mkrtos_sdk\Debug\libmkrtos_sdk.a(start.o)
 .ARM.attributes
                0x00000cbd       0x33 D:\Project\MyProject1\mkrtos_real\mkrtos_sdk\Debug\libmkrtos_sdk.a(gmtime_r.o)
 .ARM.attributes
                0x00000cf0       0x33 D:\Project\MyProject1\mkrtos_real\mkrtos_sdk\Debug\libmkrtos_sdk.a(isleap.o)
 .ARM.attributes
                0x00000d23       0x33 D:\Project\MyProject1\mkrtos_real\mkrtos_sdk\Debug\libmkrtos_sdk.a(time_table_spd.o)
 .ARM.attributes
                0x00000d56       0x33 D:\Project\MyProject1\mkrtos_real\mkrtos_sdk\Debug\libmkrtos_sdk.a(timezone.o)
 .ARM.attributes
                0x00000d89       0x33 D:\Project\MyProject1\mkrtos_real\mkrtos_sdk\Debug\libmkrtos_sdk.a(fdglue.o)
 .ARM.attributes
                0x00000dbc       0x33 D:\Project\MyProject1\mkrtos_real\mkrtos_sdk\Debug\libmkrtos_sdk.a(fdglue2.o)
 .ARM.attributes
                0x00000def       0x33 D:\Project\MyProject1\mkrtos_real\mkrtos_sdk\Debug\libmkrtos_sdk.a(fgetc_unlocked.o)
 .ARM.attributes
                0x00000e22       0x33 D:\Project\MyProject1\mkrtos_real\mkrtos_sdk\Debug\libmkrtos_sdk.a(__ltostr.o)
 .ARM.attributes
                0x00000e55       0x33 D:\Project\MyProject1\mkrtos_real\mkrtos_sdk\Debug\libmkrtos_sdk.a(__v_scanf.o)
 .ARM.attributes
                0x00000e88       0x33 D:\Project\MyProject1\mkrtos_real\mkrtos_sdk\Debug\libmkrtos_sdk.a(errlistu.o)
 .ARM.attributes
                0x00000ebb       0x33 D:\Project\MyProject1\mkrtos_real\mkrtos_sdk\Debug\libmkrtos_sdk.a(isalnum.o)
 .ARM.attributes
                0x00000eee       0x33 D:\Project\MyProject1\mkrtos_real\mkrtos_sdk\Debug\libmkrtos_sdk.a(isspace.o)
 .ARM.attributes
                0x00000f21       0x33 D:\Project\MyProject1\mkrtos_real\mkrtos_sdk\Debug\libmkrtos_sdk.a(isxdigit.o)
 .ARM.attributes
                0x00000f54       0x33 D:\Project\MyProject1\mkrtos_real\mkrtos_sdk\Debug\libmkrtos_sdk.a(memccpy.o)
 .ARM.attributes
                0x00000f87       0x33 D:\Project\MyProject1\mkrtos_real\mkrtos_sdk\Debug\libmkrtos_sdk.a(sigjmp.o)
 .ARM.attributes
                0x00000fba       0x21 D:\Project\MyProject1\mkrtos_real\mkrtos_sdk\Debug\libmkrtos_sdk.a(arm_set_tls.o)
 .ARM.attributes
                0x00000fdb       0x33 D:\Project\MyProject1\mkrtos_real\mkrtos_sdk\Debug\libmkrtos_sdk.a(__main.o)
 .ARM.attributes
                0x0000100e       0x33 D:\Project\MyProject1\mkrtos_real\mkrtos_sdk\Debug\libmkrtos_sdk.a(reloc.o)
 .ARM.attributes
                0x00001041       0x33 D:\Project\MyProject1\mkrtos_real\mkrtos_sdk\Debug\libmkrtos_sdk.a(feof.o)
 .ARM.attributes
                0x00001074       0x1d D:\Program Files (x86)\GNU Tools ARM Embedded\4.9 2014q4\lib\gcc\arm-none-eabi\4.9.3\armv7-m\libgcc.a(_lshrdi3.o)
 .ARM.attributes
                0x00001091       0x1d D:\Program Files (x86)\GNU Tools ARM Embedded\4.9 2014q4\lib\gcc\arm-none-eabi\4.9.3\armv7-m\libgcc.a(_ashldi3.o)
 .ARM.attributes
                0x000010ae       0x1d D:\Program Files (x86)\GNU Tools ARM Embedded\4.9 2014q4\lib\gcc\arm-none-eabi\4.9.3\armv7-m\libgcc.a(_arm_addsubdf3.o)
 .ARM.attributes
                0x000010cb       0x1d D:\Program Files (x86)\GNU Tools ARM Embedded\4.9 2014q4\lib\gcc\arm-none-eabi\4.9.3\armv7-m\libgcc.a(_arm_muldivdf3.o)
 .ARM.attributes
                0x000010e8       0x1d D:\Program Files (x86)\GNU Tools ARM Embedded\4.9 2014q4\lib\gcc\arm-none-eabi\4.9.3\armv7-m\libgcc.a(_arm_cmpdf2.o)
 .ARM.attributes
                0x00001105       0x1d D:\Program Files (x86)\GNU Tools ARM Embedded\4.9 2014q4\lib\gcc\arm-none-eabi\4.9.3\armv7-m\libgcc.a(_arm_truncdfsf2.o)
 .ARM.attributes
                0x00001122       0x1d D:\Program Files (x86)\GNU Tools ARM Embedded\4.9 2014q4\lib\gcc\arm-none-eabi\4.9.3\armv7-m\libgcc.a(_arm_cmpsf2.o)
 .ARM.attributes
                0x0000113f       0x1d D:\Program Files (x86)\GNU Tools ARM Embedded\4.9 2014q4\lib\gcc\arm-none-eabi\4.9.3\armv7-m\libgcc.a(_aeabi_uldivmod.o)
 .ARM.attributes
                0x0000115c       0x2d D:\Program Files (x86)\GNU Tools ARM Embedded\4.9 2014q4\lib\gcc\arm-none-eabi\4.9.3\armv7-m\libgcc.a(_fixunsdfdi.o)
 .ARM.attributes
                0x00001189       0x2d D:\Program Files (x86)\GNU Tools ARM Embedded\4.9 2014q4\lib\gcc\arm-none-eabi\4.9.3\armv7-m\libgcc.a(bpabi.o)
 .ARM.attributes
                0x000011b6       0x1d D:\Program Files (x86)\GNU Tools ARM Embedded\4.9 2014q4\lib\gcc\arm-none-eabi\4.9.3\armv7-m\libgcc.a(_dvmd_tls.o)
 .ARM.attributes
                0x000011d3       0x1d D:\Program Files (x86)\GNU Tools ARM Embedded\4.9 2014q4\lib\gcc\arm-none-eabi\4.9.3\armv7-m\libgcc.a(_arm_fixunsdfsi.o)
 .ARM.attributes
                0x000011f0       0x2d D:\Program Files (x86)\GNU Tools ARM Embedded\4.9 2014q4\lib\gcc\arm-none-eabi\4.9.3\armv7-m\libgcc.a(_divdi3.o)
 .ARM.attributes
                0x0000121d       0x2d D:\Program Files (x86)\GNU Tools ARM Embedded\4.9 2014q4\lib\gcc\arm-none-eabi\4.9.3\armv7-m\libgcc.a(_udivdi3.o)

.debug_frame    0x00000000     0x41e0
 .debug_frame   0x00000000     0x313c ./src/tcc/tcc.o
 .debug_frame   0x0000313c       0x28 D:\Project\MyProject1\mkrtos_real\mkrtos_sdk\Debug\libmkrtos_sdk.a(localtime.o)
 .debug_frame   0x00003164       0x2c D:\Project\MyProject1\mkrtos_real\mkrtos_sdk\Debug\libmkrtos_sdk.a(localtime_r.o)
 .debug_frame   0x00003190       0x94 D:\Project\MyProject1\mkrtos_real\mkrtos_sdk\Debug\libmkrtos_sdk.a(tzfile.o)
 .debug_frame   0x00003224       0x2c D:\Project\MyProject1\mkrtos_real\mkrtos_sdk\Debug\libmkrtos_sdk.a(fclose.o)
 .debug_frame   0x00003250       0x30 D:\Project\MyProject1\mkrtos_real\mkrtos_sdk\Debug\libmkrtos_sdk.a(fdopen.o)
 .debug_frame   0x00003280       0x78 D:\Project\MyProject1\mkrtos_real\mkrtos_sdk\Debug\libmkrtos_sdk.a(fflush.o)
 .debug_frame   0x000032f8       0x38 D:\Project\MyProject1\mkrtos_real\mkrtos_sdk\Debug\libmkrtos_sdk.a(fopen.o)
 .debug_frame   0x00003330       0x3c D:\Project\MyProject1\mkrtos_real\mkrtos_sdk\Debug\libmkrtos_sdk.a(fprintf.o)
 .debug_frame   0x0000336c       0x2c D:\Project\MyProject1\mkrtos_real\mkrtos_sdk\Debug\libmkrtos_sdk.a(fputc_unlocked.o)
 .debug_frame   0x00003398       0x34 D:\Project\MyProject1\mkrtos_real\mkrtos_sdk\Debug\libmkrtos_sdk.a(fputs.o)
 .debug_frame   0x000033cc       0x34 D:\Project\MyProject1\mkrtos_real\mkrtos_sdk\Debug\libmkrtos_sdk.a(fread.o)
 .debug_frame   0x00003400       0x2c D:\Project\MyProject1\mkrtos_real\mkrtos_sdk\Debug\libmkrtos_sdk.a(fseek.o)
 .debug_frame   0x0000342c       0x28 D:\Project\MyProject1\mkrtos_real\mkrtos_sdk\Debug\libmkrtos_sdk.a(ftell.o)
 .debug_frame   0x00003454       0x34 D:\Project\MyProject1\mkrtos_real\mkrtos_sdk\Debug\libmkrtos_sdk.a(fwrite.o)
 .debug_frame   0x00003488       0x40 D:\Project\MyProject1\mkrtos_real\mkrtos_sdk\Debug\libmkrtos_sdk.a(printf.o)
 .debug_frame   0x000034c8       0x20 D:\Project\MyProject1\mkrtos_real\mkrtos_sdk\Debug\libmkrtos_sdk.a(stderr.o)
 .debug_frame   0x000034e8       0x38 D:\Project\MyProject1\mkrtos_real\mkrtos_sdk\Debug\libmkrtos_sdk.a(stdin.o)
 .debug_frame   0x00003520       0x20 D:\Project\MyProject1\mkrtos_real\mkrtos_sdk\Debug\libmkrtos_sdk.a(stdout.o)
 .debug_frame   0x00003540       0x44 D:\Project\MyProject1\mkrtos_real\mkrtos_sdk\Debug\libmkrtos_sdk.a(vfprintf.o)
 .debug_frame   0x00003584       0x40 D:\Project\MyProject1\mkrtos_real\mkrtos_sdk\Debug\libmkrtos_sdk.a(vprintf.o)
 .debug_frame   0x000035c4       0x2c D:\Project\MyProject1\mkrtos_real\mkrtos_sdk\Debug\libmkrtos_sdk.a(__getcwd.o)
 .debug_frame   0x000035f0       0x38 D:\Project\MyProject1\mkrtos_real\mkrtos_sdk\Debug\libmkrtos_sdk.a(__mmap.o)
 .debug_frame   0x00003628       0x2c D:\Project\MyProject1\mkrtos_real\mkrtos_sdk\Debug\libmkrtos_sdk.a(__time.o)
 .debug_frame   0x00003654       0x5c D:\Project\MyProject1\mkrtos_real\mkrtos_sdk\Debug\libmkrtos_sdk.a(__v_printf.o)
 .debug_frame   0x000036b0       0xb0 D:\Project\MyProject1\mkrtos_real\mkrtos_sdk\Debug\libmkrtos_sdk.a(alloc.o)
 .debug_frame   0x00003760       0x3c D:\Project\MyProject1\mkrtos_real\mkrtos_sdk\Debug\libmkrtos_sdk.a(atexit.o)
 .debug_frame   0x0000379c       0x28 D:\Project\MyProject1\mkrtos_real\mkrtos_sdk\Debug\libmkrtos_sdk.a(atol.o)
 .debug_frame   0x000037c4       0x28 D:\Project\MyProject1\mkrtos_real\mkrtos_sdk\Debug\libmkrtos_sdk.a(errno_location.o)
 .debug_frame   0x000037ec       0x30 D:\Project\MyProject1\mkrtos_real\mkrtos_sdk\Debug\libmkrtos_sdk.a(getenv.o)
 .debug_frame   0x0000381c       0x20 D:\Project\MyProject1\mkrtos_real\mkrtos_sdk\Debug\libmkrtos_sdk.a(htonl.o)
 .debug_frame   0x0000383c       0x30 D:\Project\MyProject1\mkrtos_real\mkrtos_sdk\Debug\libmkrtos_sdk.a(isatty.o)
 .debug_frame   0x0000386c       0x2c D:\Project\MyProject1\mkrtos_real\mkrtos_sdk\Debug\libmkrtos_sdk.a(longjmp.o)
 .debug_frame   0x00003898       0x28 D:\Project\MyProject1\mkrtos_real\mkrtos_sdk\Debug\libmkrtos_sdk.a(memcmp.o)
 .debug_frame   0x000038c0       0x2c D:\Project\MyProject1\mkrtos_real\mkrtos_sdk\Debug\libmkrtos_sdk.a(memcpy.o)
 .debug_frame   0x000038ec       0x2c D:\Project\MyProject1\mkrtos_real\mkrtos_sdk\Debug\libmkrtos_sdk.a(memmove.o)
 .debug_frame   0x00003918       0x20 D:\Project\MyProject1\mkrtos_real\mkrtos_sdk\Debug\libmkrtos_sdk.a(memset.o)
 .debug_frame   0x00003938       0x70 D:\Project\MyProject1\mkrtos_real\mkrtos_sdk\Debug\libmkrtos_sdk.a(qsort.o)
 .debug_frame   0x000039a8       0x38 D:\Project\MyProject1\mkrtos_real\mkrtos_sdk\Debug\libmkrtos_sdk.a(rand.o)
 .debug_frame   0x000039e0       0x20 D:\Project\MyProject1\mkrtos_real\mkrtos_sdk\Debug\libmkrtos_sdk.a(rand_r.o)
 .debug_frame   0x00003a00       0x30 D:\Project\MyProject1\mkrtos_real\mkrtos_sdk\Debug\libmkrtos_sdk.a(remove.o)
 .debug_frame   0x00003a30       0x20 D:\Project\MyProject1\mkrtos_real\mkrtos_sdk\Debug\libmkrtos_sdk.a(sigprocmask.o)
 .debug_frame   0x00003a50       0x38 D:\Project\MyProject1\mkrtos_real\mkrtos_sdk\Debug\libmkrtos_sdk.a(snprintf.o)
 .debug_frame   0x00003a88       0x3c D:\Project\MyProject1\mkrtos_real\mkrtos_sdk\Debug\libmkrtos_sdk.a(sprintf.o)
 .debug_frame   0x00003ac4       0x3c D:\Project\MyProject1\mkrtos_real\mkrtos_sdk\Debug\libmkrtos_sdk.a(sscanf.o)
 .debug_frame   0x00003b00       0x20 D:\Project\MyProject1\mkrtos_real\mkrtos_sdk\Debug\libmkrtos_sdk.a(strchr.o)
 .debug_frame   0x00003b20       0x30 D:\Project\MyProject1\mkrtos_real\mkrtos_sdk\Debug\libmkrtos_sdk.a(strcmp.o)
 .debug_frame   0x00003b50       0x2c D:\Project\MyProject1\mkrtos_real\mkrtos_sdk\Debug\libmkrtos_sdk.a(strcpy.o)
 .debug_frame   0x00003b7c       0x28 D:\Project\MyProject1\mkrtos_real\mkrtos_sdk\Debug\libmkrtos_sdk.a(strerror.o)
 .debug_frame   0x00003ba4       0x20 D:\Project\MyProject1\mkrtos_real\mkrtos_sdk\Debug\libmkrtos_sdk.a(strlen.o)
 .debug_frame   0x00003bc4       0x28 D:\Project\MyProject1\mkrtos_real\mkrtos_sdk\Debug\libmkrtos_sdk.a(strncmp.o)
 .debug_frame   0x00003bec       0x28 D:\Project\MyProject1\mkrtos_real\mkrtos_sdk\Debug\libmkrtos_sdk.a(strncpy.o)
 .debug_frame   0x00003c14       0x20 D:\Project\MyProject1\mkrtos_real\mkrtos_sdk\Debug\libmkrtos_sdk.a(strrchr.o)
 .debug_frame   0x00003c34       0x30 D:\Project\MyProject1\mkrtos_real\mkrtos_sdk\Debug\libmkrtos_sdk.a(strstr.o)
 .debug_frame   0x00003c64       0x34 D:\Project\MyProject1\mkrtos_real\mkrtos_sdk\Debug\libmkrtos_sdk.a(strtol.o)
 .debug_frame   0x00003c98       0x34 D:\Project\MyProject1\mkrtos_real\mkrtos_sdk\Debug\libmkrtos_sdk.a(strtoll.o)
 .debug_frame   0x00003ccc       0x34 D:\Project\MyProject1\mkrtos_real\mkrtos_sdk\Debug\libmkrtos_sdk.a(strtoul.o)
 .debug_frame   0x00003d00       0x38 D:\Project\MyProject1\mkrtos_real\mkrtos_sdk\Debug\libmkrtos_sdk.a(strtoull.o)
 .debug_frame   0x00003d38       0x50 D:\Project\MyProject1\mkrtos_real\mkrtos_sdk\Debug\libmkrtos_sdk.a(vsnprintf.o)
 .debug_frame   0x00003d88       0x2c D:\Project\MyProject1\mkrtos_real\mkrtos_sdk\Debug\libmkrtos_sdk.a(vsprintf.o)
 .debug_frame   0x00003db4       0x48 D:\Project\MyProject1\mkrtos_real\mkrtos_sdk\Debug\libmkrtos_sdk.a(vsscanf.o)
 .debug_frame   0x00003dfc       0x70 D:\Project\MyProject1\mkrtos_real\mkrtos_sdk\Debug\libmkrtos_sdk.a(stackgap-g.o)
 .debug_frame   0x00003e6c       0x2c D:\Project\MyProject1\mkrtos_real\mkrtos_sdk\Debug\libmkrtos_sdk.a(gmtime_r.o)
 .debug_frame   0x00003e98       0x20 D:\Project\MyProject1\mkrtos_real\mkrtos_sdk\Debug\libmkrtos_sdk.a(isleap.o)
 .debug_frame   0x00003eb8       0x20 D:\Project\MyProject1\mkrtos_real\mkrtos_sdk\Debug\libmkrtos_sdk.a(fdglue.o)
 .debug_frame   0x00003ed8       0x34 D:\Project\MyProject1\mkrtos_real\mkrtos_sdk\Debug\libmkrtos_sdk.a(fdglue2.o)
 .debug_frame   0x00003f0c       0x2c D:\Project\MyProject1\mkrtos_real\mkrtos_sdk\Debug\libmkrtos_sdk.a(fgetc_unlocked.o)
 .debug_frame   0x00003f38       0x30 D:\Project\MyProject1\mkrtos_real\mkrtos_sdk\Debug\libmkrtos_sdk.a(__ltostr.o)
 .debug_frame   0x00003f68       0x3c D:\Project\MyProject1\mkrtos_real\mkrtos_sdk\Debug\libmkrtos_sdk.a(__v_scanf.o)
 .debug_frame   0x00003fa4       0x20 D:\Project\MyProject1\mkrtos_real\mkrtos_sdk\Debug\libmkrtos_sdk.a(isalnum.o)
 .debug_frame   0x00003fc4       0x20 D:\Project\MyProject1\mkrtos_real\mkrtos_sdk\Debug\libmkrtos_sdk.a(isspace.o)
 .debug_frame   0x00003fe4       0x20 D:\Project\MyProject1\mkrtos_real\mkrtos_sdk\Debug\libmkrtos_sdk.a(isxdigit.o)
 .debug_frame   0x00004004       0x28 D:\Project\MyProject1\mkrtos_real\mkrtos_sdk\Debug\libmkrtos_sdk.a(memccpy.o)
 .debug_frame   0x0000402c       0x28 D:\Project\MyProject1\mkrtos_real\mkrtos_sdk\Debug\libmkrtos_sdk.a(sigjmp.o)
 .debug_frame   0x00004054       0x2c D:\Project\MyProject1\mkrtos_real\mkrtos_sdk\Debug\libmkrtos_sdk.a(__main.o)
 .debug_frame   0x00004080       0x30 D:\Project\MyProject1\mkrtos_real\mkrtos_sdk\Debug\libmkrtos_sdk.a(reloc.o)
 .debug_frame   0x000040b0       0x20 D:\Project\MyProject1\mkrtos_real\mkrtos_sdk\Debug\libmkrtos_sdk.a(feof.o)
 .debug_frame   0x000040d0       0x28 D:\Program Files (x86)\GNU Tools ARM Embedded\4.9 2014q4\lib\gcc\arm-none-eabi\4.9.3\armv7-m\libgcc.a(_aeabi_uldivmod.o)
 .debug_frame   0x000040f8       0x2c D:\Program Files (x86)\GNU Tools ARM Embedded\4.9 2014q4\lib\gcc\arm-none-eabi\4.9.3\armv7-m\libgcc.a(_fixunsdfdi.o)
 .debug_frame   0x00004124       0x54 D:\Program Files (x86)\GNU Tools ARM Embedded\4.9 2014q4\lib\gcc\arm-none-eabi\4.9.3\armv7-m\libgcc.a(bpabi.o)
 .debug_frame   0x00004178       0x34 D:\Program Files (x86)\GNU Tools ARM Embedded\4.9 2014q4\lib\gcc\arm-none-eabi\4.9.3\armv7-m\libgcc.a(_divdi3.o)
 .debug_frame   0x000041ac       0x34 D:\Program Files (x86)\GNU Tools ARM Embedded\4.9 2014q4\lib\gcc\arm-none-eabi\4.9.3\armv7-m\libgcc.a(_udivdi3.o)

Cross Reference Table

Symbol                                            File
_DYNAMIC                                          ./src/tcc/tcc.o
_GLOBAL_OFFSET_TABLE_                             ./src/tcc/tcc.o
__adddf3                                          D:\Program Files (x86)\GNU Tools ARM Embedded\4.9 2014q4\lib\gcc\arm-none-eabi\4.9.3\armv7-m\libgcc.a(_arm_addsubdf3.o)
__aeabi_cdcmpeq                                   D:\Program Files (x86)\GNU Tools ARM Embedded\4.9 2014q4\lib\gcc\arm-none-eabi\4.9.3\armv7-m\libgcc.a(_arm_cmpdf2.o)
__aeabi_cdcmple                                   D:\Program Files (x86)\GNU Tools ARM Embedded\4.9 2014q4\lib\gcc\arm-none-eabi\4.9.3\armv7-m\libgcc.a(_arm_cmpdf2.o)
__aeabi_cdrcmple                                  D:\Program Files (x86)\GNU Tools ARM Embedded\4.9 2014q4\lib\gcc\arm-none-eabi\4.9.3\armv7-m\libgcc.a(_arm_cmpdf2.o)
__aeabi_cfcmpeq                                   D:\Program Files (x86)\GNU Tools ARM Embedded\4.9 2014q4\lib\gcc\arm-none-eabi\4.9.3\armv7-m\libgcc.a(_arm_cmpsf2.o)
__aeabi_cfcmple                                   D:\Program Files (x86)\GNU Tools ARM Embedded\4.9 2014q4\lib\gcc\arm-none-eabi\4.9.3\armv7-m\libgcc.a(_arm_cmpsf2.o)
__aeabi_cfrcmple                                  D:\Program Files (x86)\GNU Tools ARM Embedded\4.9 2014q4\lib\gcc\arm-none-eabi\4.9.3\armv7-m\libgcc.a(_arm_cmpsf2.o)
__aeabi_d2f                                       D:\Program Files (x86)\GNU Tools ARM Embedded\4.9 2014q4\lib\gcc\arm-none-eabi\4.9.3\armv7-m\libgcc.a(_arm_truncdfsf2.o)
                                                  ./src/tcc/tcc.o
__aeabi_d2uiz                                     D:\Program Files (x86)\GNU Tools ARM Embedded\4.9 2014q4\lib\gcc\arm-none-eabi\4.9.3\armv7-m\libgcc.a(_arm_fixunsdfsi.o)
                                                  D:\Program Files (x86)\GNU Tools ARM Embedded\4.9 2014q4\lib\gcc\arm-none-eabi\4.9.3\armv7-m\libgcc.a(_fixunsdfdi.o)
__aeabi_d2ulz                                     D:\Program Files (x86)\GNU Tools ARM Embedded\4.9 2014q4\lib\gcc\arm-none-eabi\4.9.3\armv7-m\libgcc.a(_fixunsdfdi.o)
                                                  ./src/tcc/tcc.o
__aeabi_dadd                                      D:\Program Files (x86)\GNU Tools ARM Embedded\4.9 2014q4\lib\gcc\arm-none-eabi\4.9.3\armv7-m\libgcc.a(_arm_addsubdf3.o)
                                                  ./src/tcc/tcc.o
__aeabi_dcmpeq                                    D:\Program Files (x86)\GNU Tools ARM Embedded\4.9 2014q4\lib\gcc\arm-none-eabi\4.9.3\armv7-m\libgcc.a(_arm_cmpdf2.o)
                                                  ./src/tcc/tcc.o
__aeabi_dcmpge                                    D:\Program Files (x86)\GNU Tools ARM Embedded\4.9 2014q4\lib\gcc\arm-none-eabi\4.9.3\armv7-m\libgcc.a(_arm_cmpdf2.o)
__aeabi_dcmpgt                                    D:\Program Files (x86)\GNU Tools ARM Embedded\4.9 2014q4\lib\gcc\arm-none-eabi\4.9.3\armv7-m\libgcc.a(_arm_cmpdf2.o)
__aeabi_dcmple                                    D:\Program Files (x86)\GNU Tools ARM Embedded\4.9 2014q4\lib\gcc\arm-none-eabi\4.9.3\armv7-m\libgcc.a(_arm_cmpdf2.o)
__aeabi_dcmplt                                    D:\Program Files (x86)\GNU Tools ARM Embedded\4.9 2014q4\lib\gcc\arm-none-eabi\4.9.3\armv7-m\libgcc.a(_arm_cmpdf2.o)
__aeabi_ddiv                                      D:\Program Files (x86)\GNU Tools ARM Embedded\4.9 2014q4\lib\gcc\arm-none-eabi\4.9.3\armv7-m\libgcc.a(_arm_muldivdf3.o)
                                                  ./src/tcc/tcc.o
__aeabi_dmul                                      D:\Program Files (x86)\GNU Tools ARM Embedded\4.9 2014q4\lib\gcc\arm-none-eabi\4.9.3\armv7-m\libgcc.a(_arm_muldivdf3.o)
                                                  D:\Program Files (x86)\GNU Tools ARM Embedded\4.9 2014q4\lib\gcc\arm-none-eabi\4.9.3\armv7-m\libgcc.a(_fixunsdfdi.o)
                                                  ./src/tcc/tcc.o
__aeabi_drsub                                     D:\Program Files (x86)\GNU Tools ARM Embedded\4.9 2014q4\lib\gcc\arm-none-eabi\4.9.3\armv7-m\libgcc.a(_arm_addsubdf3.o)
__aeabi_dsub                                      D:\Program Files (x86)\GNU Tools ARM Embedded\4.9 2014q4\lib\gcc\arm-none-eabi\4.9.3\armv7-m\libgcc.a(_arm_addsubdf3.o)
                                                  D:\Program Files (x86)\GNU Tools ARM Embedded\4.9 2014q4\lib\gcc\arm-none-eabi\4.9.3\armv7-m\libgcc.a(_fixunsdfdi.o)
                                                  ./src/tcc/tcc.o
__aeabi_f2d                                       D:\Program Files (x86)\GNU Tools ARM Embedded\4.9 2014q4\lib\gcc\arm-none-eabi\4.9.3\armv7-m\libgcc.a(_arm_addsubdf3.o)
                                                  ./src/tcc/tcc.o
__aeabi_fcmpeq                                    D:\Program Files (x86)\GNU Tools ARM Embedded\4.9 2014q4\lib\gcc\arm-none-eabi\4.9.3\armv7-m\libgcc.a(_arm_cmpsf2.o)
                                                  ./src/tcc/tcc.o
__aeabi_fcmpge                                    D:\Program Files (x86)\GNU Tools ARM Embedded\4.9 2014q4\lib\gcc\arm-none-eabi\4.9.3\armv7-m\libgcc.a(_arm_cmpsf2.o)
__aeabi_fcmpgt                                    D:\Program Files (x86)\GNU Tools ARM Embedded\4.9 2014q4\lib\gcc\arm-none-eabi\4.9.3\armv7-m\libgcc.a(_arm_cmpsf2.o)
__aeabi_fcmple                                    D:\Program Files (x86)\GNU Tools ARM Embedded\4.9 2014q4\lib\gcc\arm-none-eabi\4.9.3\armv7-m\libgcc.a(_arm_cmpsf2.o)
__aeabi_fcmplt                                    D:\Program Files (x86)\GNU Tools ARM Embedded\4.9 2014q4\lib\gcc\arm-none-eabi\4.9.3\armv7-m\libgcc.a(_arm_cmpsf2.o)
__aeabi_i2d                                       D:\Program Files (x86)\GNU Tools ARM Embedded\4.9 2014q4\lib\gcc\arm-none-eabi\4.9.3\armv7-m\libgcc.a(_arm_addsubdf3.o)
__aeabi_idiv0                                     D:\Program Files (x86)\GNU Tools ARM Embedded\4.9 2014q4\lib\gcc\arm-none-eabi\4.9.3\armv7-m\libgcc.a(_dvmd_tls.o)
__aeabi_l2d                                       D:\Program Files (x86)\GNU Tools ARM Embedded\4.9 2014q4\lib\gcc\arm-none-eabi\4.9.3\armv7-m\libgcc.a(_arm_addsubdf3.o)
__aeabi_ldiv0                                     D:\Program Files (x86)\GNU Tools ARM Embedded\4.9 2014q4\lib\gcc\arm-none-eabi\4.9.3\armv7-m\libgcc.a(_dvmd_tls.o)
                                                  D:\Program Files (x86)\GNU Tools ARM Embedded\4.9 2014q4\lib\gcc\arm-none-eabi\4.9.3\armv7-m\libgcc.a(_aeabi_uldivmod.o)
__aeabi_llsl                                      D:\Program Files (x86)\GNU Tools ARM Embedded\4.9 2014q4\lib\gcc\arm-none-eabi\4.9.3\armv7-m\libgcc.a(_ashldi3.o)
                                                  ./src/tcc/tcc.o
__aeabi_llsr                                      D:\Program Files (x86)\GNU Tools ARM Embedded\4.9 2014q4\lib\gcc\arm-none-eabi\4.9.3\armv7-m\libgcc.a(_lshrdi3.o)
                                                  ./src/tcc/tcc.o
__aeabi_ui2d                                      D:\Program Files (x86)\GNU Tools ARM Embedded\4.9 2014q4\lib\gcc\arm-none-eabi\4.9.3\armv7-m\libgcc.a(_arm_addsubdf3.o)
                                                  D:\Program Files (x86)\GNU Tools ARM Embedded\4.9 2014q4\lib\gcc\arm-none-eabi\4.9.3\armv7-m\libgcc.a(_fixunsdfdi.o)
                                                  ./src/tcc/tcc.o
__aeabi_ul2d                                      D:\Program Files (x86)\GNU Tools ARM Embedded\4.9 2014q4\lib\gcc\arm-none-eabi\4.9.3\armv7-m\libgcc.a(_arm_addsubdf3.o)
                                                  ./src/tcc/tcc.o
__aeabi_uldivmod                                  D:\Program Files (x86)\GNU Tools ARM Embedded\4.9 2014q4\lib\gcc\arm-none-eabi\4.9.3\armv7-m\libgcc.a(_aeabi_uldivmod.o)
                                                  ./src/tcc/tcc.o
__app_start_addr__                                D:\Project\MyProject1\mkrtos_real\mkrtos_sdk\Debug\libmkrtos_sdk.a(__main.o)
__arm_set_tls                                     D:\Project\MyProject1\mkrtos_real\mkrtos_sdk\Debug\libmkrtos_sdk.a(arm_set_tls.o)
                                                  D:\Project\MyProject1\mkrtos_real\mkrtos_sdk\Debug\libmkrtos_sdk.a(stackgap-g.o)
__ashldi3                                         D:\Program Files (x86)\GNU Tools ARM Embedded\4.9 2014q4\lib\gcc\arm-none-eabi\4.9.3\armv7-m\libgcc.a(_ashldi3.o)
__bss_start__                                     D:\Project\MyProject1\mkrtos_real\mkrtos_sdk\Debug\libmkrtos_sdk.a(start.o)
__clone                                           D:\Project\MyProject1\mkrtos_real\mkrtos_sdk\Debug\libmkrtos_sdk.a(dyn_syscalls.o)
__cmpdf2                                          D:\Program Files (x86)\GNU Tools ARM Embedded\4.9 2014q4\lib\gcc\arm-none-eabi\4.9.3\armv7-m\libgcc.a(_arm_cmpdf2.o)
__cmpsf2                                          D:\Program Files (x86)\GNU Tools ARM Embedded\4.9 2014q4\lib\gcc\arm-none-eabi\4.9.3\armv7-m\libgcc.a(_arm_cmpsf2.o)
__data_end__                                      D:\Project\MyProject1\mkrtos_real\mkrtos_sdk\Debug\libmkrtos_sdk.a(start.o)
__data_start__                                    D:\Project\MyProject1\mkrtos_real\mkrtos_sdk\Debug\libmkrtos_sdk.a(start.o)
__diet_brk                                        D:\Project\MyProject1\mkrtos_real\mkrtos_sdk\Debug\libmkrtos_sdk.a(dyn_syscalls.o)
__diet_ptrace                                     D:\Project\MyProject1\mkrtos_real\mkrtos_sdk\Debug\libmkrtos_sdk.a(dyn_syscalls.o)
__dietlibc_fcntl64                                D:\Project\MyProject1\mkrtos_real\mkrtos_sdk\Debug\libmkrtos_sdk.a(dyn_syscalls.o)
__dietlibc_fstat64                                D:\Project\MyProject1\mkrtos_real\mkrtos_sdk\Debug\libmkrtos_sdk.a(dyn_syscalls.o)
__dietlibc_fstatfs64                              D:\Project\MyProject1\mkrtos_real\mkrtos_sdk\Debug\libmkrtos_sdk.a(dyn_syscalls.o)
__dietlibc_ftruncate64                            D:\Project\MyProject1\mkrtos_real\mkrtos_sdk\Debug\libmkrtos_sdk.a(dyn_syscalls.o)
__dietlibc_ftruncate64_syscall                    D:\Project\MyProject1\mkrtos_real\mkrtos_sdk\Debug\libmkrtos_sdk.a(dyn_syscalls.o)
__dietlibc_lstat64                                D:\Project\MyProject1\mkrtos_real\mkrtos_sdk\Debug\libmkrtos_sdk.a(dyn_syscalls.o)
__dietlibc_sendfile64                             D:\Project\MyProject1\mkrtos_real\mkrtos_sdk\Debug\libmkrtos_sdk.a(dyn_syscalls.o)
__dietlibc_stat64                                 D:\Project\MyProject1\mkrtos_real\mkrtos_sdk\Debug\libmkrtos_sdk.a(dyn_syscalls.o)
__dietlibc_statfs64                               D:\Project\MyProject1\mkrtos_real\mkrtos_sdk\Debug\libmkrtos_sdk.a(dyn_syscalls.o)
__dietlibc_truncate64                             D:\Project\MyProject1\mkrtos_real\mkrtos_sdk\Debug\libmkrtos_sdk.a(dyn_syscalls.o)
__dietlibc_truncate64_syscall                     D:\Project\MyProject1\mkrtos_real\mkrtos_sdk\Debug\libmkrtos_sdk.a(dyn_syscalls.o)
__divdf3                                          D:\Program Files (x86)\GNU Tools ARM Embedded\4.9 2014q4\lib\gcc\arm-none-eabi\4.9.3\armv7-m\libgcc.a(_arm_muldivdf3.o)
__divdi3                                          D:\Program Files (x86)\GNU Tools ARM Embedded\4.9 2014q4\lib\gcc\arm-none-eabi\4.9.3\armv7-m\libgcc.a(_divdi3.o)
                                                  D:\Program Files (x86)\GNU Tools ARM Embedded\4.9 2014q4\lib\gcc\arm-none-eabi\4.9.3\armv7-m\libgcc.a(bpabi.o)
__environ                                         D:\Project\MyProject1\mkrtos_real\mkrtos_sdk\Debug\libmkrtos_sdk.a(dyn_syscalls.o)
__eqdf2                                           D:\Program Files (x86)\GNU Tools ARM Embedded\4.9 2014q4\lib\gcc\arm-none-eabi\4.9.3\armv7-m\libgcc.a(_arm_cmpdf2.o)
__eqsf2                                           D:\Program Files (x86)\GNU Tools ARM Embedded\4.9 2014q4\lib\gcc\arm-none-eabi\4.9.3\armv7-m\libgcc.a(_arm_cmpsf2.o)
__errno_location                                  D:\Project\MyProject1\mkrtos_real\mkrtos_sdk\Debug\libmkrtos_sdk.a(errno_location.o)
                                                  D:\Project\MyProject1\mkrtos_real\mkrtos_sdk\Debug\libmkrtos_sdk.a(fdglue2.o)
                                                  D:\Project\MyProject1\mkrtos_real\mkrtos_sdk\Debug\libmkrtos_sdk.a(dyn_syscalls.o)
                                                  D:\Project\MyProject1\mkrtos_real\mkrtos_sdk\Debug\libmkrtos_sdk.a(strtoull.o)
                                                  D:\Project\MyProject1\mkrtos_real\mkrtos_sdk\Debug\libmkrtos_sdk.a(strtoul.o)
                                                  D:\Project\MyProject1\mkrtos_real\mkrtos_sdk\Debug\libmkrtos_sdk.a(strtoll.o)
                                                  D:\Project\MyProject1\mkrtos_real\mkrtos_sdk\Debug\libmkrtos_sdk.a(strtol.o)
                                                  D:\Project\MyProject1\mkrtos_real\mkrtos_sdk\Debug\libmkrtos_sdk.a(remove.o)
                                                  D:\Project\MyProject1\mkrtos_real\mkrtos_sdk\Debug\libmkrtos_sdk.a(isatty.o)
                                                  D:\Project\MyProject1\mkrtos_real\mkrtos_sdk\Debug\libmkrtos_sdk.a(alloc.o)
                                                  D:\Project\MyProject1\mkrtos_real\mkrtos_sdk\Debug\libmkrtos_sdk.a(__mmap.o)
                                                  D:\Project\MyProject1\mkrtos_real\mkrtos_sdk\Debug\libmkrtos_sdk.a(__getcwd.o)
                                                  D:\Project\MyProject1\mkrtos_real\mkrtos_sdk\Debug\libmkrtos_sdk.a(fwrite.o)
                                                  D:\Project\MyProject1\mkrtos_real\mkrtos_sdk\Debug\libmkrtos_sdk.a(fdopen.o)
                                                  ./src/tcc/tcc.o
__exit                                            D:\Project\MyProject1\mkrtos_real\mkrtos_sdk\Debug\libmkrtos_sdk.a(dyn_syscalls.o)
__extendsfdf2                                     D:\Program Files (x86)\GNU Tools ARM Embedded\4.9 2014q4\lib\gcc\arm-none-eabi\4.9.3\armv7-m\libgcc.a(_arm_addsubdf3.o)
__fflush4                                         D:\Project\MyProject1\mkrtos_real\mkrtos_sdk\Debug\libmkrtos_sdk.a(fflush.o)
                                                  D:\Project\MyProject1\mkrtos_real\mkrtos_sdk\Debug\libmkrtos_sdk.a(fgetc_unlocked.o)
                                                  D:\Project\MyProject1\mkrtos_real\mkrtos_sdk\Debug\libmkrtos_sdk.a(fwrite.o)
                                                  D:\Project\MyProject1\mkrtos_real\mkrtos_sdk\Debug\libmkrtos_sdk.a(fputc_unlocked.o)
__fflush_stderr                                   D:\Project\MyProject1\mkrtos_real\mkrtos_sdk\Debug\libmkrtos_sdk.a(stderr.o)
                                                  D:\Project\MyProject1\mkrtos_real\mkrtos_sdk\Debug\libmkrtos_sdk.a(fflush.o)
__fflush_stdin                                    D:\Project\MyProject1\mkrtos_real\mkrtos_sdk\Debug\libmkrtos_sdk.a(stdin.o)
__fflush_stdout                                   D:\Project\MyProject1\mkrtos_real\mkrtos_sdk\Debug\libmkrtos_sdk.a(stdout.o)
                                                  D:\Project\MyProject1\mkrtos_real\mkrtos_sdk\Debug\libmkrtos_sdk.a(fflush.o)
__fixunsdfdi                                      D:\Program Files (x86)\GNU Tools ARM Embedded\4.9 2014q4\lib\gcc\arm-none-eabi\4.9.3\armv7-m\libgcc.a(_fixunsdfdi.o)
__fixunsdfsi                                      D:\Program Files (x86)\GNU Tools ARM Embedded\4.9 2014q4\lib\gcc\arm-none-eabi\4.9.3\armv7-m\libgcc.a(_arm_fixunsdfsi.o)
__floatdidf                                       D:\Program Files (x86)\GNU Tools ARM Embedded\4.9 2014q4\lib\gcc\arm-none-eabi\4.9.3\armv7-m\libgcc.a(_arm_addsubdf3.o)
__floatsidf                                       D:\Program Files (x86)\GNU Tools ARM Embedded\4.9 2014q4\lib\gcc\arm-none-eabi\4.9.3\armv7-m\libgcc.a(_arm_addsubdf3.o)
__floatundidf                                     D:\Program Files (x86)\GNU Tools ARM Embedded\4.9 2014q4\lib\gcc\arm-none-eabi\4.9.3\armv7-m\libgcc.a(_arm_addsubdf3.o)
__floatunsidf                                     D:\Program Files (x86)\GNU Tools ARM Embedded\4.9 2014q4\lib\gcc\arm-none-eabi\4.9.3\armv7-m\libgcc.a(_arm_addsubdf3.o)
__gedf2                                           D:\Program Files (x86)\GNU Tools ARM Embedded\4.9 2014q4\lib\gcc\arm-none-eabi\4.9.3\armv7-m\libgcc.a(_arm_cmpdf2.o)
__gesf2                                           D:\Program Files (x86)\GNU Tools ARM Embedded\4.9 2014q4\lib\gcc\arm-none-eabi\4.9.3\armv7-m\libgcc.a(_arm_cmpsf2.o)
__gnu_ldivmod_helper                              D:\Program Files (x86)\GNU Tools ARM Embedded\4.9 2014q4\lib\gcc\arm-none-eabi\4.9.3\armv7-m\libgcc.a(bpabi.o)
__gnu_uldivmod_helper                             D:\Program Files (x86)\GNU Tools ARM Embedded\4.9 2014q4\lib\gcc\arm-none-eabi\4.9.3\armv7-m\libgcc.a(bpabi.o)
                                                  D:\Program Files (x86)\GNU Tools ARM Embedded\4.9 2014q4\lib\gcc\arm-none-eabi\4.9.3\armv7-m\libgcc.a(_aeabi_uldivmod.o)
__got_end__                                       D:\Project\MyProject1\mkrtos_real\mkrtos_sdk\Debug\libmkrtos_sdk.a(reloc.o)
                                                  D:\Project\MyProject1\mkrtos_real\mkrtos_sdk\Debug\libmkrtos_sdk.a(start.o)
__got_start__                                     D:\Project\MyProject1\mkrtos_real\mkrtos_sdk\Debug\libmkrtos_sdk.a(reloc.o)
                                                  D:\Project\MyProject1\mkrtos_real\mkrtos_sdk\Debug\libmkrtos_sdk.a(start.o)
__gtdf2                                           D:\Program Files (x86)\GNU Tools ARM Embedded\4.9 2014q4\lib\gcc\arm-none-eabi\4.9.3\armv7-m\libgcc.a(_arm_cmpdf2.o)
__gtsf2                                           D:\Program Files (x86)\GNU Tools ARM Embedded\4.9 2014q4\lib\gcc\arm-none-eabi\4.9.3\armv7-m\libgcc.a(_arm_cmpsf2.o)
__guard                                           D:\Project\MyProject1\mkrtos_real\mkrtos_sdk\Debug\libmkrtos_sdk.a(dyn_syscalls.o)
                                                  D:\Project\MyProject1\mkrtos_real\mkrtos_sdk\Debug\libmkrtos_sdk.a(stackgap-g.o)
__heap_size__                                     D:\Project\MyProject1\mkrtos_real\mkrtos_sdk\Debug\libmkrtos_sdk.a(start.o)
__heap_start__                                    D:\Project\MyProject1\mkrtos_real\mkrtos_sdk\Debug\libmkrtos_sdk.a(start.o)
__isleap                                          D:\Project\MyProject1\mkrtos_real\mkrtos_sdk\Debug\libmkrtos_sdk.a(isleap.o)
                                                  D:\Project\MyProject1\mkrtos_real\mkrtos_sdk\Debug\libmkrtos_sdk.a(gmtime_r.o)
__isspace_ascii                                   D:\Project\MyProject1\mkrtos_real\mkrtos_sdk\Debug\libmkrtos_sdk.a(isspace.o)
__isxdigit_ascii                                  D:\Project\MyProject1\mkrtos_real\mkrtos_sdk\Debug\libmkrtos_sdk.a(isxdigit.o)
__ledf2                                           D:\Program Files (x86)\GNU Tools ARM Embedded\4.9 2014q4\lib\gcc\arm-none-eabi\4.9.3\armv7-m\libgcc.a(_arm_cmpdf2.o)
__lesf2                                           D:\Program Files (x86)\GNU Tools ARM Embedded\4.9 2014q4\lib\gcc\arm-none-eabi\4.9.3\armv7-m\libgcc.a(_arm_cmpsf2.o)
__libc_calloc                                     D:\Project\MyProject1\mkrtos_real\mkrtos_sdk\Debug\libmkrtos_sdk.a(alloc.o)
__libc_chown32                                    D:\Project\MyProject1\mkrtos_real\mkrtos_sdk\Debug\libmkrtos_sdk.a(dyn_syscalls.o)
__libc_close                                      D:\Project\MyProject1\mkrtos_real\mkrtos_sdk\Debug\libmkrtos_sdk.a(dyn_syscalls.o)
                                                  D:\Project\MyProject1\mkrtos_real\mkrtos_sdk\Debug\libmkrtos_sdk.a(fdglue2.o)
                                                  D:\Project\MyProject1\mkrtos_real\mkrtos_sdk\Debug\libmkrtos_sdk.a(fclose.o)
__libc_exit                                       D:\Project\MyProject1\mkrtos_real\mkrtos_sdk\Debug\libmkrtos_sdk.a(atexit.o)
__libc_fchown32                                   D:\Project\MyProject1\mkrtos_real\mkrtos_sdk\Debug\libmkrtos_sdk.a(dyn_syscalls.o)
__libc_fcntl                                      D:\Project\MyProject1\mkrtos_real\mkrtos_sdk\Debug\libmkrtos_sdk.a(dyn_syscalls.o)
__libc_fork                                       D:\Project\MyProject1\mkrtos_real\mkrtos_sdk\Debug\libmkrtos_sdk.a(dyn_syscalls.o)
__libc_free                                       D:\Project\MyProject1\mkrtos_real\mkrtos_sdk\Debug\libmkrtos_sdk.a(alloc.o)
__libc_fsync                                      D:\Project\MyProject1\mkrtos_real\mkrtos_sdk\Debug\libmkrtos_sdk.a(dyn_syscalls.o)
__libc_getegid32                                  D:\Project\MyProject1\mkrtos_real\mkrtos_sdk\Debug\libmkrtos_sdk.a(dyn_syscalls.o)
__libc_geteuid32                                  D:\Project\MyProject1\mkrtos_real\mkrtos_sdk\Debug\libmkrtos_sdk.a(dyn_syscalls.o)
__libc_getgid32                                   D:\Project\MyProject1\mkrtos_real\mkrtos_sdk\Debug\libmkrtos_sdk.a(dyn_syscalls.o)
__libc_getgroups32                                D:\Project\MyProject1\mkrtos_real\mkrtos_sdk\Debug\libmkrtos_sdk.a(dyn_syscalls.o)
__libc_getresgid32                                D:\Project\MyProject1\mkrtos_real\mkrtos_sdk\Debug\libmkrtos_sdk.a(dyn_syscalls.o)
__libc_getuid32                                   D:\Project\MyProject1\mkrtos_real\mkrtos_sdk\Debug\libmkrtos_sdk.a(dyn_syscalls.o)
__libc_lchown32                                   D:\Project\MyProject1\mkrtos_real\mkrtos_sdk\Debug\libmkrtos_sdk.a(dyn_syscalls.o)
__libc_longjmp                                    D:\Project\MyProject1\mkrtos_real\mkrtos_sdk\Debug\libmkrtos_sdk.a(longjmp.o)
__libc_lseek                                      D:\Project\MyProject1\mkrtos_real\mkrtos_sdk\Debug\libmkrtos_sdk.a(dyn_syscalls.o)
__libc_malloc                                     D:\Project\MyProject1\mkrtos_real\mkrtos_sdk\Debug\libmkrtos_sdk.a(alloc.o)
__libc_msync                                      D:\Project\MyProject1\mkrtos_real\mkrtos_sdk\Debug\libmkrtos_sdk.a(dyn_syscalls.o)
__libc_nanosleep                                  D:\Project\MyProject1\mkrtos_real\mkrtos_sdk\Debug\libmkrtos_sdk.a(dyn_syscalls.o)
__libc_open                                       D:\Project\MyProject1\mkrtos_real\mkrtos_sdk\Debug\libmkrtos_sdk.a(dyn_syscalls.o)
                                                  D:\Project\MyProject1\mkrtos_real\mkrtos_sdk\Debug\libmkrtos_sdk.a(fopen.o)
__libc_pause                                      D:\Project\MyProject1\mkrtos_real\mkrtos_sdk\Debug\libmkrtos_sdk.a(dyn_syscalls.o)
__libc_pread64                                    D:\Project\MyProject1\mkrtos_real\mkrtos_sdk\Debug\libmkrtos_sdk.a(dyn_syscalls.o)
__libc_pwrite64                                   D:\Project\MyProject1\mkrtos_real\mkrtos_sdk\Debug\libmkrtos_sdk.a(dyn_syscalls.o)
__libc_read                                       D:\Project\MyProject1\mkrtos_real\mkrtos_sdk\Debug\libmkrtos_sdk.a(dyn_syscalls.o)
                                                  D:\Project\MyProject1\mkrtos_real\mkrtos_sdk\Debug\libmkrtos_sdk.a(fgetc_unlocked.o)
                                                  D:\Project\MyProject1\mkrtos_real\mkrtos_sdk\Debug\libmkrtos_sdk.a(fread.o)
__libc_realloc                                    D:\Project\MyProject1\mkrtos_real\mkrtos_sdk\Debug\libmkrtos_sdk.a(alloc.o)
__libc_select                                     D:\Project\MyProject1\mkrtos_real\mkrtos_sdk\Debug\libmkrtos_sdk.a(dyn_syscalls.o)
__libc_sendfile                                   D:\Project\MyProject1\mkrtos_real\mkrtos_sdk\Debug\libmkrtos_sdk.a(dyn_syscalls.o)
__libc_setfsgid32                                 D:\Project\MyProject1\mkrtos_real\mkrtos_sdk\Debug\libmkrtos_sdk.a(dyn_syscalls.o)
__libc_setfsuid32                                 D:\Project\MyProject1\mkrtos_real\mkrtos_sdk\Debug\libmkrtos_sdk.a(dyn_syscalls.o)
__libc_setgid32                                   D:\Project\MyProject1\mkrtos_real\mkrtos_sdk\Debug\libmkrtos_sdk.a(dyn_syscalls.o)
__libc_setregid32                                 D:\Project\MyProject1\mkrtos_real\mkrtos_sdk\Debug\libmkrtos_sdk.a(dyn_syscalls.o)
__libc_setresgid32                                D:\Project\MyProject1\mkrtos_real\mkrtos_sdk\Debug\libmkrtos_sdk.a(dyn_syscalls.o)
__libc_setreuid32                                 D:\Project\MyProject1\mkrtos_real\mkrtos_sdk\Debug\libmkrtos_sdk.a(dyn_syscalls.o)
__libc_setuid32                                   D:\Project\MyProject1\mkrtos_real\mkrtos_sdk\Debug\libmkrtos_sdk.a(dyn_syscalls.o)
__libc_waitpid                                    D:\Project\MyProject1\mkrtos_real\mkrtos_sdk\Debug\libmkrtos_sdk.a(dyn_syscalls.o)
__libc_write                                      D:\Project\MyProject1\mkrtos_real\mkrtos_sdk\Debug\libmkrtos_sdk.a(dyn_syscalls.o)
                                                  D:\Project\MyProject1\mkrtos_real\mkrtos_sdk\Debug\libmkrtos_sdk.a(fwrite.o)
                                                  D:\Project\MyProject1\mkrtos_real\mkrtos_sdk\Debug\libmkrtos_sdk.a(fputc_unlocked.o)
__longjmp                                         D:\Project\MyProject1\mkrtos_real\mkrtos_sdk\Debug\libmkrtos_sdk.a(dyn_syscalls.o)
                                                  D:\Project\MyProject1\mkrtos_real\mkrtos_sdk\Debug\libmkrtos_sdk.a(longjmp.o)
__lshrdi3                                         D:\Program Files (x86)\GNU Tools ARM Embedded\4.9 2014q4\lib\gcc\arm-none-eabi\4.9.3\armv7-m\libgcc.a(_lshrdi3.o)
__ltdf2                                           D:\Program Files (x86)\GNU Tools ARM Embedded\4.9 2014q4\lib\gcc\arm-none-eabi\4.9.3\armv7-m\libgcc.a(_arm_cmpdf2.o)
__ltostr                                          D:\Project\MyProject1\mkrtos_real\mkrtos_sdk\Debug\libmkrtos_sdk.a(__ltostr.o)
                                                  D:\Project\MyProject1\mkrtos_real\mkrtos_sdk\Debug\libmkrtos_sdk.a(__v_printf.o)
__ltsf2                                           D:\Program Files (x86)\GNU Tools ARM Embedded\4.9 2014q4\lib\gcc\arm-none-eabi\4.9.3\armv7-m\libgcc.a(_arm_cmpsf2.o)
__main                                            D:\Project\MyProject1\mkrtos_real\mkrtos_sdk\Debug\libmkrtos_sdk.a(__main.o)
                                                  D:\Project\MyProject1\mkrtos_real\mkrtos_sdk\Debug\libmkrtos_sdk.a(start.o)
__maplocaltime                                    D:\Project\MyProject1\mkrtos_real\mkrtos_sdk\Debug\libmkrtos_sdk.a(tzfile.o)
                                                  D:\Project\MyProject1\mkrtos_real\mkrtos_sdk\Debug\libmkrtos_sdk.a(localtime_r.o)
__mmap2                                           D:\Project\MyProject1\mkrtos_real\mkrtos_sdk\Debug\libmkrtos_sdk.a(dyn_syscalls.o)
                                                  D:\Project\MyProject1\mkrtos_real\mkrtos_sdk\Debug\libmkrtos_sdk.a(__mmap.o)
__muldf3                                          D:\Program Files (x86)\GNU Tools ARM Embedded\4.9 2014q4\lib\gcc\arm-none-eabi\4.9.3\armv7-m\libgcc.a(_arm_muldivdf3.o)
__n_sigaction                                     D:\Project\MyProject1\mkrtos_real\mkrtos_sdk\Debug\libmkrtos_sdk.a(dyn_syscalls.o)
__n_sigpending                                    D:\Project\MyProject1\mkrtos_real\mkrtos_sdk\Debug\libmkrtos_sdk.a(dyn_syscalls.o)
__n_sigprocmask                                   D:\Project\MyProject1\mkrtos_real\mkrtos_sdk\Debug\libmkrtos_sdk.a(dyn_syscalls.o)
__n_sigsuspend                                    D:\Project\MyProject1\mkrtos_real\mkrtos_sdk\Debug\libmkrtos_sdk.a(dyn_syscalls.o)
__nedf2                                           D:\Program Files (x86)\GNU Tools ARM Embedded\4.9 2014q4\lib\gcc\arm-none-eabi\4.9.3\armv7-m\libgcc.a(_arm_cmpdf2.o)
__nesf2                                           D:\Program Files (x86)\GNU Tools ARM Embedded\4.9 2014q4\lib\gcc\arm-none-eabi\4.9.3\armv7-m\libgcc.a(_arm_cmpsf2.o)
__nop                                             D:\Project\MyProject1\mkrtos_real\mkrtos_sdk\Debug\libmkrtos_sdk.a(dyn_syscalls.o)
__old_sigaction                                   D:\Project\MyProject1\mkrtos_real\mkrtos_sdk\Debug\libmkrtos_sdk.a(dyn_syscalls.o)
__old_sigpending                                  D:\Project\MyProject1\mkrtos_real\mkrtos_sdk\Debug\libmkrtos_sdk.a(dyn_syscalls.o)
__old_sigprocmask                                 D:\Project\MyProject1\mkrtos_real\mkrtos_sdk\Debug\libmkrtos_sdk.a(dyn_syscalls.o)
__old_sigsuspend                                  D:\Project\MyProject1\mkrtos_real\mkrtos_sdk\Debug\libmkrtos_sdk.a(dyn_syscalls.o)
__ram_size__                                      D:\Project\MyProject1\mkrtos_real\mkrtos_sdk\Debug\libmkrtos_sdk.a(start.o)
__reboot                                          D:\Project\MyProject1\mkrtos_real\mkrtos_sdk\Debug\libmkrtos_sdk.a(dyn_syscalls.o)
__rel_end__                                       D:\Project\MyProject1\mkrtos_real\mkrtos_sdk\Debug\libmkrtos_sdk.a(reloc.o)
                                                  D:\Project\MyProject1\mkrtos_real\mkrtos_sdk\Debug\libmkrtos_sdk.a(start.o)
__rel_start__                                     D:\Project\MyProject1\mkrtos_real\mkrtos_sdk\Debug\libmkrtos_sdk.a(reloc.o)
                                                  D:\Project\MyProject1\mkrtos_real\mkrtos_sdk\Debug\libmkrtos_sdk.a(start.o)
__rt_sigaction                                    D:\Project\MyProject1\mkrtos_real\mkrtos_sdk\Debug\libmkrtos_sdk.a(dyn_syscalls.o)
__rt_sigpending                                   D:\Project\MyProject1\mkrtos_real\mkrtos_sdk\Debug\libmkrtos_sdk.a(dyn_syscalls.o)
__rt_sigprocmask                                  D:\Project\MyProject1\mkrtos_real\mkrtos_sdk\Debug\libmkrtos_sdk.a(dyn_syscalls.o)
                                                  D:\Project\MyProject1\mkrtos_real\mkrtos_sdk\Debug\libmkrtos_sdk.a(sigprocmask.o)
__rt_sigqueueinfo                                 D:\Project\MyProject1\mkrtos_real\mkrtos_sdk\Debug\libmkrtos_sdk.a(dyn_syscalls.o)
__rt_sigsuspend                                   D:\Project\MyProject1\mkrtos_real\mkrtos_sdk\Debug\libmkrtos_sdk.a(dyn_syscalls.o)
__rt_sigtimedwait                                 D:\Project\MyProject1\mkrtos_real\mkrtos_sdk\Debug\libmkrtos_sdk.a(dyn_syscalls.o)
__setjmp                                          D:\Project\MyProject1\mkrtos_real\mkrtos_sdk\Debug\libmkrtos_sdk.a(dyn_syscalls.o)
__setup_tls                                       D:\Project\MyProject1\mkrtos_real\mkrtos_sdk\Debug\libmkrtos_sdk.a(stackgap-g.o)
__sigaltstack                                     D:\Project\MyProject1\mkrtos_real\mkrtos_sdk\Debug\libmkrtos_sdk.a(dyn_syscalls.o)
__sigjmp_save                                     D:\Project\MyProject1\mkrtos_real\mkrtos_sdk\Debug\libmkrtos_sdk.a(sigjmp.o)
                                                  D:\Project\MyProject1\mkrtos_real\mkrtos_sdk\Debug\libmkrtos_sdk.a(dyn_syscalls.o)
__siglongjmp                                      D:\Project\MyProject1\mkrtos_real\mkrtos_sdk\Debug\libmkrtos_sdk.a(longjmp.o)
__sigsetjmp                                       D:\Project\MyProject1\mkrtos_real\mkrtos_sdk\Debug\libmkrtos_sdk.a(dyn_syscalls.o)
                                                  ./src/tcc/tcc.o
__spm                                             D:\Project\MyProject1\mkrtos_real\mkrtos_sdk\Debug\libmkrtos_sdk.a(time_table_spd.o)
                                                  D:\Project\MyProject1\mkrtos_real\mkrtos_sdk\Debug\libmkrtos_sdk.a(gmtime_r.o)
__stack_chk_guard                                 D:\Project\MyProject1\mkrtos_real\mkrtos_sdk\Debug\libmkrtos_sdk.a(dyn_syscalls.o)
__stack_end__                                     D:\Project\MyProject1\mkrtos_real\mkrtos_sdk\Debug\libmkrtos_sdk.a(start.o)
__stack_size__                                    D:\Project\MyProject1\mkrtos_real\mkrtos_sdk\Debug\libmkrtos_sdk.a(start.o)
__stack_start__                                   D:\Project\MyProject1\mkrtos_real\mkrtos_sdk\Debug\libmkrtos_sdk.a(start.o)
__stdin_is_tty                                    D:\Project\MyProject1\mkrtos_real\mkrtos_sdk\Debug\libmkrtos_sdk.a(stdin.o)
                                                  D:\Project\MyProject1\mkrtos_real\mkrtos_sdk\Debug\libmkrtos_sdk.a(fflush.o)
__stdio_atexit                                    D:\Project\MyProject1\mkrtos_real\mkrtos_sdk\Debug\libmkrtos_sdk.a(fflush.o)
                                                  D:\Project\MyProject1\mkrtos_real\mkrtos_sdk\Debug\libmkrtos_sdk.a(fdglue2.o)
__stdio_flushall                                  D:\Project\MyProject1\mkrtos_real\mkrtos_sdk\Debug\libmkrtos_sdk.a(fflush.o)
                                                  D:\Project\MyProject1\mkrtos_real\mkrtos_sdk\Debug\libmkrtos_sdk.a(fdglue2.o)
__stdio_init_file                                 D:\Project\MyProject1\mkrtos_real\mkrtos_sdk\Debug\libmkrtos_sdk.a(fdglue2.o)
                                                  D:\Project\MyProject1\mkrtos_real\mkrtos_sdk\Debug\libmkrtos_sdk.a(fopen.o)
                                                  D:\Project\MyProject1\mkrtos_real\mkrtos_sdk\Debug\libmkrtos_sdk.a(fdopen.o)
__stdio_init_file_nothreads                       D:\Project\MyProject1\mkrtos_real\mkrtos_sdk\Debug\libmkrtos_sdk.a(fdglue2.o)
__stdio_outs                                      D:\Project\MyProject1\mkrtos_real\mkrtos_sdk\Debug\libmkrtos_sdk.a(fflush.o)
__stdio_parse_mode                                D:\Project\MyProject1\mkrtos_real\mkrtos_sdk\Debug\libmkrtos_sdk.a(fdglue.o)
                                                  D:\Project\MyProject1\mkrtos_real\mkrtos_sdk\Debug\libmkrtos_sdk.a(fopen.o)
                                                  D:\Project\MyProject1\mkrtos_real\mkrtos_sdk\Debug\libmkrtos_sdk.a(fdopen.o)
__stdio_root                                      D:\Project\MyProject1\mkrtos_real\mkrtos_sdk\Debug\libmkrtos_sdk.a(fflush.o)
                                                  D:\Project\MyProject1\mkrtos_real\mkrtos_sdk\Debug\libmkrtos_sdk.a(fdglue2.o)
                                                  D:\Project\MyProject1\mkrtos_real\mkrtos_sdk\Debug\libmkrtos_sdk.a(fclose.o)
__subdf3                                          D:\Program Files (x86)\GNU Tools ARM Embedded\4.9 2014q4\lib\gcc\arm-none-eabi\4.9.3\armv7-m\libgcc.a(_arm_addsubdf3.o)
__sys_err_unknown                                 D:\Project\MyProject1\mkrtos_real\mkrtos_sdk\Debug\libmkrtos_sdk.a(errlistu.o)
                                                  D:\Project\MyProject1\mkrtos_real\mkrtos_sdk\Debug\libmkrtos_sdk.a(strerror.o)
__syscall_getcwd                                  D:\Project\MyProject1\mkrtos_real\mkrtos_sdk\Debug\libmkrtos_sdk.a(dyn_syscalls.o)
                                                  D:\Project\MyProject1\mkrtos_real\mkrtos_sdk\Debug\libmkrtos_sdk.a(__getcwd.o)
__syscall_getpriority                             D:\Project\MyProject1\mkrtos_real\mkrtos_sdk\Debug\libmkrtos_sdk.a(dyn_syscalls.o)
__syscall_sched_getaffinity                       D:\Project\MyProject1\mkrtos_real\mkrtos_sdk\Debug\libmkrtos_sdk.a(dyn_syscalls.o)
__syscall_syslog                                  D:\Project\MyProject1\mkrtos_real\mkrtos_sdk\Debug\libmkrtos_sdk.a(dyn_syscalls.o)
__tcb_mainthread                                  D:\Project\MyProject1\mkrtos_real\mkrtos_sdk\Debug\libmkrtos_sdk.a(stackgap-g.o)
__tdataptr                                        D:\Project\MyProject1\mkrtos_real\mkrtos_sdk\Debug\libmkrtos_sdk.a(stackgap-g.o)
__tdatasize                                       D:\Project\MyProject1\mkrtos_real\mkrtos_sdk\Debug\libmkrtos_sdk.a(stackgap-g.o)
__text_start__                                    D:\Project\MyProject1\mkrtos_real\mkrtos_sdk\Debug\libmkrtos_sdk.a(reloc.o)
                                                  D:\Project\MyProject1\mkrtos_real\mkrtos_sdk\Debug\libmkrtos_sdk.a(start.o)
__thread_doexit                                   D:\Project\MyProject1\mkrtos_real\mkrtos_sdk\Debug\libmkrtos_sdk.a(dyn_syscalls.o)
                                                  D:\Project\MyProject1\mkrtos_real\mkrtos_sdk\Debug\libmkrtos_sdk.a(atexit.o)
__tmemsize                                        D:\Project\MyProject1\mkrtos_real\mkrtos_sdk\Debug\libmkrtos_sdk.a(stackgap-g.o)
__truncdfsf2                                      D:\Program Files (x86)\GNU Tools ARM Embedded\4.9 2014q4\lib\gcc\arm-none-eabi\4.9.3\armv7-m\libgcc.a(_arm_truncdfsf2.o)
__tzfile_map                                      D:\Project\MyProject1\mkrtos_real\mkrtos_sdk\Debug\libmkrtos_sdk.a(tzfile.o)
                                                  D:\Project\MyProject1\mkrtos_real\mkrtos_sdk\Debug\libmkrtos_sdk.a(localtime_r.o)
__udivdi3                                         D:\Program Files (x86)\GNU Tools ARM Embedded\4.9 2014q4\lib\gcc\arm-none-eabi\4.9.3\armv7-m\libgcc.a(_udivdi3.o)
                                                  D:\Program Files (x86)\GNU Tools ARM Embedded\4.9 2014q4\lib\gcc\arm-none-eabi\4.9.3\armv7-m\libgcc.a(bpabi.o)
__unified_syscall                                 D:\Project\MyProject1\mkrtos_real\mkrtos_sdk\Debug\libmkrtos_sdk.a(dyn_syscalls.o)
__unified_syscall4                                D:\Project\MyProject1\mkrtos_real\mkrtos_sdk\Debug\libmkrtos_sdk.a(dyn_syscalls.o)
__v_printf                                        D:\Project\MyProject1\mkrtos_real\mkrtos_sdk\Debug\libmkrtos_sdk.a(__v_printf.o)
                                                  D:\Project\MyProject1\mkrtos_real\mkrtos_sdk\Debug\libmkrtos_sdk.a(vsnprintf.o)
                                                  D:\Project\MyProject1\mkrtos_real\mkrtos_sdk\Debug\libmkrtos_sdk.a(vprintf.o)
                                                  D:\Project\MyProject1\mkrtos_real\mkrtos_sdk\Debug\libmkrtos_sdk.a(vfprintf.o)
__v_scanf                                         D:\Project\MyProject1\mkrtos_real\mkrtos_sdk\Debug\libmkrtos_sdk.a(__v_scanf.o)
                                                  D:\Project\MyProject1\mkrtos_real\mkrtos_sdk\Debug\libmkrtos_sdk.a(vsscanf.o)
__valgrind                                        D:\Project\MyProject1\mkrtos_real\mkrtos_sdk\Debug\libmkrtos_sdk.a(stackgap-g.o)
                                                  D:\Project\MyProject1\mkrtos_real\mkrtos_sdk\Debug\libmkrtos_sdk.a(strlen.o)
                                                  D:\Project\MyProject1\mkrtos_real\mkrtos_sdk\Debug\libmkrtos_sdk.a(strcpy.o)
                                                  D:\Project\MyProject1\mkrtos_real\mkrtos_sdk\Debug\libmkrtos_sdk.a(strcmp.o)
__vdso                                            D:\Project\MyProject1\mkrtos_real\mkrtos_sdk\Debug\libmkrtos_sdk.a(stackgap-g.o)
__you_tried_to_link_a_dietlibc_object_against_glibc D:\Project\MyProject1\mkrtos_real\mkrtos_sdk\Debug\libmkrtos_sdk.a(dyn_syscalls.o)
_exit                                             D:\Project\MyProject1\mkrtos_real\mkrtos_sdk\Debug\libmkrtos_sdk.a(start.o)
                                                  D:\Project\MyProject1\mkrtos_real\mkrtos_sdk\Debug\libmkrtos_sdk.a(atexit.o)
_llseek                                           D:\Project\MyProject1\mkrtos_real\mkrtos_sdk\Debug\libmkrtos_sdk.a(dyn_syscalls.o)
_start                                            D:\Project\MyProject1\mkrtos_real\mkrtos_sdk\Debug\libmkrtos_sdk.a(start.o)
_start_                                           D:\Project\MyProject1\mkrtos_real\mkrtos_sdk\Debug\libmkrtos_sdk.a(start.o)
_sysctl                                           D:\Project\MyProject1\mkrtos_real\mkrtos_sdk\Debug\libmkrtos_sdk.a(dyn_syscalls.o)
_tcc_error                                        ./src/tcc/tcc.o
_tcc_error_noabort                                ./src/tcc/tcc.o
_tcc_warning                                      ./src/tcc/tcc.o
access                                            D:\Project\MyProject1\mkrtos_real\mkrtos_sdk\Debug\libmkrtos_sdk.a(dyn_syscalls.o)
add_key                                           D:\Project\MyProject1\mkrtos_real\mkrtos_sdk\Debug\libmkrtos_sdk.a(dyn_syscalls.o)
adjtimex                                          D:\Project\MyProject1\mkrtos_real\mkrtos_sdk\Debug\libmkrtos_sdk.a(dyn_syscalls.o)
assign_vfpreg                                     ./src/tcc/tcc.o
atexit                                            D:\Project\MyProject1\mkrtos_real\mkrtos_sdk\Debug\libmkrtos_sdk.a(atexit.o)
                                                  D:\Project\MyProject1\mkrtos_real\mkrtos_sdk\Debug\libmkrtos_sdk.a(fdglue2.o)
                                                  D:\Project\MyProject1\mkrtos_real\mkrtos_sdk\Debug\libmkrtos_sdk.a(fflush.o)
atoi                                              D:\Project\MyProject1\mkrtos_real\mkrtos_sdk\Debug\libmkrtos_sdk.a(atol.o)
                                                  ./src/tcc/tcc.o
atol                                              D:\Project\MyProject1\mkrtos_real\mkrtos_sdk\Debug\libmkrtos_sdk.a(atol.o)
bcmp                                              D:\Project\MyProject1\mkrtos_real\mkrtos_sdk\Debug\libmkrtos_sdk.a(memcmp.o)
calloc                                            D:\Project\MyProject1\mkrtos_real\mkrtos_sdk\Debug\libmkrtos_sdk.a(alloc.o)
capget                                            D:\Project\MyProject1\mkrtos_real\mkrtos_sdk\Debug\libmkrtos_sdk.a(dyn_syscalls.o)
capset                                            D:\Project\MyProject1\mkrtos_real\mkrtos_sdk\Debug\libmkrtos_sdk.a(dyn_syscalls.o)
chdir                                             D:\Project\MyProject1\mkrtos_real\mkrtos_sdk\Debug\libmkrtos_sdk.a(dyn_syscalls.o)
chmod                                             D:\Project\MyProject1\mkrtos_real\mkrtos_sdk\Debug\libmkrtos_sdk.a(dyn_syscalls.o)
chown                                             D:\Project\MyProject1\mkrtos_real\mkrtos_sdk\Debug\libmkrtos_sdk.a(dyn_syscalls.o)
chown32                                           D:\Project\MyProject1\mkrtos_real\mkrtos_sdk\Debug\libmkrtos_sdk.a(dyn_syscalls.o)
chroot                                            D:\Project\MyProject1\mkrtos_real\mkrtos_sdk\Debug\libmkrtos_sdk.a(dyn_syscalls.o)
clock_getres                                      D:\Project\MyProject1\mkrtos_real\mkrtos_sdk\Debug\libmkrtos_sdk.a(dyn_syscalls.o)
clock_gettime                                     D:\Project\MyProject1\mkrtos_real\mkrtos_sdk\Debug\libmkrtos_sdk.a(dyn_syscalls.o)
clock_nanosleep                                   D:\Project\MyProject1\mkrtos_real\mkrtos_sdk\Debug\libmkrtos_sdk.a(dyn_syscalls.o)
clock_settime                                     D:\Project\MyProject1\mkrtos_real\mkrtos_sdk\Debug\libmkrtos_sdk.a(dyn_syscalls.o)
clone                                             D:\Project\MyProject1\mkrtos_real\mkrtos_sdk\Debug\libmkrtos_sdk.a(dyn_syscalls.o)
close                                             D:\Project\MyProject1\mkrtos_real\mkrtos_sdk\Debug\libmkrtos_sdk.a(dyn_syscalls.o)
                                                  D:\Project\MyProject1\mkrtos_real\mkrtos_sdk\Debug\libmkrtos_sdk.a(tzfile.o)
                                                  ./src/tcc/tcc.o
daylight                                          D:\Project\MyProject1\mkrtos_real\mkrtos_sdk\Debug\libmkrtos_sdk.a(timezone.o)
                                                  D:\Project\MyProject1\mkrtos_real\mkrtos_sdk\Debug\libmkrtos_sdk.a(tzfile.o)
decbranch                                         ./src/tcc/tcc.o
default_elfinterp                                 ./src/tcc/tcc.o
delete_module                                     D:\Project\MyProject1\mkrtos_real\mkrtos_sdk\Debug\libmkrtos_sdk.a(dyn_syscalls.o)
dup                                               D:\Project\MyProject1\mkrtos_real\mkrtos_sdk\Debug\libmkrtos_sdk.a(dyn_syscalls.o)
dup2                                              D:\Project\MyProject1\mkrtos_real\mkrtos_sdk\Debug\libmkrtos_sdk.a(dyn_syscalls.o)
encbranch                                         ./src/tcc/tcc.o
environ                                           D:\Project\MyProject1\mkrtos_real\mkrtos_sdk\Debug\libmkrtos_sdk.a(dyn_syscalls.o)
                                                  D:\Project\MyProject1\mkrtos_real\mkrtos_sdk\Debug\libmkrtos_sdk.a(start.o)
                                                  D:\Project\MyProject1\mkrtos_real\mkrtos_sdk\Debug\libmkrtos_sdk.a(getenv.o)
epoll_create                                      D:\Project\MyProject1\mkrtos_real\mkrtos_sdk\Debug\libmkrtos_sdk.a(dyn_syscalls.o)
epoll_ctl                                         D:\Project\MyProject1\mkrtos_real\mkrtos_sdk\Debug\libmkrtos_sdk.a(dyn_syscalls.o)
epoll_wait                                        D:\Project\MyProject1\mkrtos_real\mkrtos_sdk\Debug\libmkrtos_sdk.a(dyn_syscalls.o)
errno                                             D:\Project\MyProject1\mkrtos_real\mkrtos_sdk\Debug\libmkrtos_sdk.a(dyn_syscalls.o)
                                                  D:\Project\MyProject1\mkrtos_real\mkrtos_sdk\Debug\libmkrtos_sdk.a(errno_location.o)
execve                                            D:\Project\MyProject1\mkrtos_real\mkrtos_sdk\Debug\libmkrtos_sdk.a(dyn_syscalls.o)
exit                                              D:\Project\MyProject1\mkrtos_real\mkrtos_sdk\Debug\libmkrtos_sdk.a(atexit.o)
                                                  D:\Project\MyProject1\mkrtos_real\mkrtos_sdk\Debug\libmkrtos_sdk.a(__main.o)
                                                  D:\Project\MyProject1\mkrtos_real\mkrtos_sdk\Debug\libmkrtos_sdk.a(stackgap-g.o)
                                                  ./src/tcc/tcc.o
fchdir                                            D:\Project\MyProject1\mkrtos_real\mkrtos_sdk\Debug\libmkrtos_sdk.a(dyn_syscalls.o)
fchmod                                            D:\Project\MyProject1\mkrtos_real\mkrtos_sdk\Debug\libmkrtos_sdk.a(dyn_syscalls.o)
fchown                                            D:\Project\MyProject1\mkrtos_real\mkrtos_sdk\Debug\libmkrtos_sdk.a(dyn_syscalls.o)
fchown32                                          D:\Project\MyProject1\mkrtos_real\mkrtos_sdk\Debug\libmkrtos_sdk.a(dyn_syscalls.o)
fclose                                            D:\Project\MyProject1\mkrtos_real\mkrtos_sdk\Debug\libmkrtos_sdk.a(fclose.o)
                                                  ./src/tcc/tcc.o
fclose_unlocked                                   D:\Project\MyProject1\mkrtos_real\mkrtos_sdk\Debug\libmkrtos_sdk.a(fclose.o)
fcntl                                             D:\Project\MyProject1\mkrtos_real\mkrtos_sdk\Debug\libmkrtos_sdk.a(dyn_syscalls.o)
fdopen                                            D:\Project\MyProject1\mkrtos_real\mkrtos_sdk\Debug\libmkrtos_sdk.a(fdopen.o)
                                                  ./src/tcc/tcc.o
fdopen_unlocked                                   D:\Project\MyProject1\mkrtos_real\mkrtos_sdk\Debug\libmkrtos_sdk.a(fdopen.o)
feof                                              D:\Project\MyProject1\mkrtos_real\mkrtos_sdk\Debug\libmkrtos_sdk.a(feof.o)
feof_unlocked                                     D:\Project\MyProject1\mkrtos_real\mkrtos_sdk\Debug\libmkrtos_sdk.a(feof.o)
                                                  D:\Project\MyProject1\mkrtos_real\mkrtos_sdk\Debug\libmkrtos_sdk.a(fgetc_unlocked.o)
fflush                                            D:\Project\MyProject1\mkrtos_real\mkrtos_sdk\Debug\libmkrtos_sdk.a(fflush.o)
                                                  D:\Project\MyProject1\mkrtos_real\mkrtos_sdk\Debug\libmkrtos_sdk.a(stdout.o)
                                                  D:\Project\MyProject1\mkrtos_real\mkrtos_sdk\Debug\libmkrtos_sdk.a(stdin.o)
                                                  D:\Project\MyProject1\mkrtos_real\mkrtos_sdk\Debug\libmkrtos_sdk.a(stderr.o)
                                                  ./src/tcc/tcc.o
fflush_unlocked                                   D:\Project\MyProject1\mkrtos_real\mkrtos_sdk\Debug\libmkrtos_sdk.a(fflush.o)
                                                  D:\Project\MyProject1\mkrtos_real\mkrtos_sdk\Debug\libmkrtos_sdk.a(fwrite.o)
                                                  D:\Project\MyProject1\mkrtos_real\mkrtos_sdk\Debug\libmkrtos_sdk.a(fseek.o)
                                                  D:\Project\MyProject1\mkrtos_real\mkrtos_sdk\Debug\libmkrtos_sdk.a(fputc_unlocked.o)
                                                  D:\Project\MyProject1\mkrtos_real\mkrtos_sdk\Debug\libmkrtos_sdk.a(fclose.o)
fgetc                                             D:\Project\MyProject1\mkrtos_real\mkrtos_sdk\Debug\libmkrtos_sdk.a(fgetc_unlocked.o)
fgetc_unlocked                                    D:\Project\MyProject1\mkrtos_real\mkrtos_sdk\Debug\libmkrtos_sdk.a(fgetc_unlocked.o)
                                                  D:\Project\MyProject1\mkrtos_real\mkrtos_sdk\Debug\libmkrtos_sdk.a(fread.o)
fgetxattr                                         D:\Project\MyProject1\mkrtos_real\mkrtos_sdk\Debug\libmkrtos_sdk.a(dyn_syscalls.o)
flistxattr                                        D:\Project\MyProject1\mkrtos_real\mkrtos_sdk\Debug\libmkrtos_sdk.a(dyn_syscalls.o)
float_abi                                         ./src/tcc/tcc.o
floats_in_core_regs                               ./src/tcc/tcc.o
flock                                             D:\Project\MyProject1\mkrtos_real\mkrtos_sdk\Debug\libmkrtos_sdk.a(dyn_syscalls.o)
flockfile                                         D:\Project\MyProject1\mkrtos_real\mkrtos_sdk\Debug\libmkrtos_sdk.a(dyn_syscalls.o)
fopen                                             D:\Project\MyProject1\mkrtos_real\mkrtos_sdk\Debug\libmkrtos_sdk.a(fopen.o)
                                                  ./src/tcc/tcc.o
fopen_unlocked                                    D:\Project\MyProject1\mkrtos_real\mkrtos_sdk\Debug\libmkrtos_sdk.a(fopen.o)
fork                                              D:\Project\MyProject1\mkrtos_real\mkrtos_sdk\Debug\libmkrtos_sdk.a(dyn_syscalls.o)
fprintf                                           D:\Project\MyProject1\mkrtos_real\mkrtos_sdk\Debug\libmkrtos_sdk.a(fprintf.o)
                                                  ./src/tcc/tcc.o
fputc                                             D:\Project\MyProject1\mkrtos_real\mkrtos_sdk\Debug\libmkrtos_sdk.a(fputc_unlocked.o)
                                                  ./src/tcc/tcc.o
fputc_unlocked                                    D:\Project\MyProject1\mkrtos_real\mkrtos_sdk\Debug\libmkrtos_sdk.a(fputc_unlocked.o)
                                                  D:\Project\MyProject1\mkrtos_real\mkrtos_sdk\Debug\libmkrtos_sdk.a(fwrite.o)
fputs                                             D:\Project\MyProject1\mkrtos_real\mkrtos_sdk\Debug\libmkrtos_sdk.a(fputs.o)
                                                  ./src/tcc/tcc.o
fputs_unlocked                                    D:\Project\MyProject1\mkrtos_real\mkrtos_sdk\Debug\libmkrtos_sdk.a(fputs.o)
fread                                             D:\Project\MyProject1\mkrtos_real\mkrtos_sdk\Debug\libmkrtos_sdk.a(fread.o)
                                                  ./src/tcc/tcc.o
fread_unlocked                                    D:\Project\MyProject1\mkrtos_real\mkrtos_sdk\Debug\libmkrtos_sdk.a(fread.o)
free                                              D:\Project\MyProject1\mkrtos_real\mkrtos_sdk\Debug\libmkrtos_sdk.a(alloc.o)
                                                  D:\Project\MyProject1\mkrtos_real\mkrtos_sdk\Debug\libmkrtos_sdk.a(fdglue2.o)
                                                  D:\Project\MyProject1\mkrtos_real\mkrtos_sdk\Debug\libmkrtos_sdk.a(fclose.o)
                                                  ./src/tcc/tcc.o
fremovexattr                                      D:\Project\MyProject1\mkrtos_real\mkrtos_sdk\Debug\libmkrtos_sdk.a(dyn_syscalls.o)
fseek                                             D:\Project\MyProject1\mkrtos_real\mkrtos_sdk\Debug\libmkrtos_sdk.a(fseek.o)
                                                  ./src/tcc/tcc.o
fseek_unlocked                                    D:\Project\MyProject1\mkrtos_real\mkrtos_sdk\Debug\libmkrtos_sdk.a(fseek.o)
fsetxattr                                         D:\Project\MyProject1\mkrtos_real\mkrtos_sdk\Debug\libmkrtos_sdk.a(dyn_syscalls.o)
fstat                                             D:\Project\MyProject1\mkrtos_real\mkrtos_sdk\Debug\libmkrtos_sdk.a(dyn_syscalls.o)
                                                  D:\Project\MyProject1\mkrtos_real\mkrtos_sdk\Debug\libmkrtos_sdk.a(fdglue2.o)
fstatfs                                           D:\Project\MyProject1\mkrtos_real\mkrtos_sdk\Debug\libmkrtos_sdk.a(dyn_syscalls.o)
fsync                                             D:\Project\MyProject1\mkrtos_real\mkrtos_sdk\Debug\libmkrtos_sdk.a(dyn_syscalls.o)
ftell                                             D:\Project\MyProject1\mkrtos_real\mkrtos_sdk\Debug\libmkrtos_sdk.a(ftell.o)
                                                  ./src/tcc/tcc.o
ftell_unlocked                                    D:\Project\MyProject1\mkrtos_real\mkrtos_sdk\Debug\libmkrtos_sdk.a(ftell.o)
ftruncate                                         D:\Project\MyProject1\mkrtos_real\mkrtos_sdk\Debug\libmkrtos_sdk.a(dyn_syscalls.o)
ftrylockfile                                      D:\Project\MyProject1\mkrtos_real\mkrtos_sdk\Debug\libmkrtos_sdk.a(dyn_syscalls.o)
funlockfile                                       D:\Project\MyProject1\mkrtos_real\mkrtos_sdk\Debug\libmkrtos_sdk.a(dyn_syscalls.o)
futex                                             D:\Project\MyProject1\mkrtos_real\mkrtos_sdk\Debug\libmkrtos_sdk.a(dyn_syscalls.o)
fwrite                                            D:\Project\MyProject1\mkrtos_real\mkrtos_sdk\Debug\libmkrtos_sdk.a(fwrite.o)
                                                  D:\Project\MyProject1\mkrtos_real\mkrtos_sdk\Debug\libmkrtos_sdk.a(vfprintf.o)
                                                  D:\Project\MyProject1\mkrtos_real\mkrtos_sdk\Debug\libmkrtos_sdk.a(fflush.o)
                                                  ./src/tcc/tcc.o
fwrite_unlocked                                   D:\Project\MyProject1\mkrtos_real\mkrtos_sdk\Debug\libmkrtos_sdk.a(fwrite.o)
                                                  D:\Project\MyProject1\mkrtos_real\mkrtos_sdk\Debug\libmkrtos_sdk.a(fputs.o)
gen_negf                                          ./src/tcc/tcc.o
get_mempolicy                                     D:\Project\MyProject1\mkrtos_real\mkrtos_sdk\Debug\libmkrtos_sdk.a(dyn_syscalls.o)
getauxval                                         D:\Project\MyProject1\mkrtos_real\mkrtos_sdk\Debug\libmkrtos_sdk.a(stackgap-g.o)
getcwd                                            D:\Project\MyProject1\mkrtos_real\mkrtos_sdk\Debug\libmkrtos_sdk.a(__getcwd.o)
                                                  ./src/tcc/tcc.o
getdents                                          D:\Project\MyProject1\mkrtos_real\mkrtos_sdk\Debug\libmkrtos_sdk.a(dyn_syscalls.o)
getdents64                                        D:\Project\MyProject1\mkrtos_real\mkrtos_sdk\Debug\libmkrtos_sdk.a(dyn_syscalls.o)
getegid                                           D:\Project\MyProject1\mkrtos_real\mkrtos_sdk\Debug\libmkrtos_sdk.a(dyn_syscalls.o)
getegid32                                         D:\Project\MyProject1\mkrtos_real\mkrtos_sdk\Debug\libmkrtos_sdk.a(dyn_syscalls.o)
getenv                                            D:\Project\MyProject1\mkrtos_real\mkrtos_sdk\Debug\libmkrtos_sdk.a(getenv.o)
                                                  D:\Project\MyProject1\mkrtos_real\mkrtos_sdk\Debug\libmkrtos_sdk.a(stackgap-g.o)
                                                  ./src/tcc/tcc.o
geteuid                                           D:\Project\MyProject1\mkrtos_real\mkrtos_sdk\Debug\libmkrtos_sdk.a(dyn_syscalls.o)
geteuid32                                         D:\Project\MyProject1\mkrtos_real\mkrtos_sdk\Debug\libmkrtos_sdk.a(dyn_syscalls.o)
getgid                                            D:\Project\MyProject1\mkrtos_real\mkrtos_sdk\Debug\libmkrtos_sdk.a(dyn_syscalls.o)
getgid32                                          D:\Project\MyProject1\mkrtos_real\mkrtos_sdk\Debug\libmkrtos_sdk.a(dyn_syscalls.o)
getgroups                                         D:\Project\MyProject1\mkrtos_real\mkrtos_sdk\Debug\libmkrtos_sdk.a(dyn_syscalls.o)
getgroups32                                       D:\Project\MyProject1\mkrtos_real\mkrtos_sdk\Debug\libmkrtos_sdk.a(dyn_syscalls.o)
getitimer                                         D:\Project\MyProject1\mkrtos_real\mkrtos_sdk\Debug\libmkrtos_sdk.a(dyn_syscalls.o)
getpgid                                           D:\Project\MyProject1\mkrtos_real\mkrtos_sdk\Debug\libmkrtos_sdk.a(dyn_syscalls.o)
getpid                                            D:\Project\MyProject1\mkrtos_real\mkrtos_sdk\Debug\libmkrtos_sdk.a(dyn_syscalls.o)
getppid                                           D:\Project\MyProject1\mkrtos_real\mkrtos_sdk\Debug\libmkrtos_sdk.a(dyn_syscalls.o)
getresgid                                         D:\Project\MyProject1\mkrtos_real\mkrtos_sdk\Debug\libmkrtos_sdk.a(dyn_syscalls.o)
getresgid32                                       D:\Project\MyProject1\mkrtos_real\mkrtos_sdk\Debug\libmkrtos_sdk.a(dyn_syscalls.o)
getresuid                                         D:\Project\MyProject1\mkrtos_real\mkrtos_sdk\Debug\libmkrtos_sdk.a(dyn_syscalls.o)
getrlimit                                         D:\Project\MyProject1\mkrtos_real\mkrtos_sdk\Debug\libmkrtos_sdk.a(dyn_syscalls.o)
getrusage                                         D:\Project\MyProject1\mkrtos_real\mkrtos_sdk\Debug\libmkrtos_sdk.a(dyn_syscalls.o)
getsid                                            D:\Project\MyProject1\mkrtos_real\mkrtos_sdk\Debug\libmkrtos_sdk.a(dyn_syscalls.o)
gettid                                            D:\Project\MyProject1\mkrtos_real\mkrtos_sdk\Debug\libmkrtos_sdk.a(dyn_syscalls.o)
gettimeofday                                      D:\Project\MyProject1\mkrtos_real\mkrtos_sdk\Debug\libmkrtos_sdk.a(dyn_syscalls.o)
                                                  D:\Project\MyProject1\mkrtos_real\mkrtos_sdk\Debug\libmkrtos_sdk.a(__time.o)
                                                  ./src/tcc/tcc.o
getuid                                            D:\Project\MyProject1\mkrtos_real\mkrtos_sdk\Debug\libmkrtos_sdk.a(dyn_syscalls.o)
getuid32                                          D:\Project\MyProject1\mkrtos_real\mkrtos_sdk\Debug\libmkrtos_sdk.a(dyn_syscalls.o)
getxattr                                          D:\Project\MyProject1\mkrtos_real\mkrtos_sdk\Debug\libmkrtos_sdk.a(dyn_syscalls.o)
gmtime_r                                          D:\Project\MyProject1\mkrtos_real\mkrtos_sdk\Debug\libmkrtos_sdk.a(gmtime_r.o)
                                                  D:\Project\MyProject1\mkrtos_real\mkrtos_sdk\Debug\libmkrtos_sdk.a(localtime_r.o)
htonl                                             D:\Project\MyProject1\mkrtos_real\mkrtos_sdk\Debug\libmkrtos_sdk.a(htonl.o)
index                                             D:\Project\MyProject1\mkrtos_real\mkrtos_sdk\Debug\libmkrtos_sdk.a(strchr.o)
init_module                                       D:\Project\MyProject1\mkrtos_real\mkrtos_sdk\Debug\libmkrtos_sdk.a(dyn_syscalls.o)
inotify_add_watch                                 D:\Project\MyProject1\mkrtos_real\mkrtos_sdk\Debug\libmkrtos_sdk.a(dyn_syscalls.o)
inotify_init                                      D:\Project\MyProject1\mkrtos_real\mkrtos_sdk\Debug\libmkrtos_sdk.a(dyn_syscalls.o)
inotify_rm_watch                                  D:\Project\MyProject1\mkrtos_real\mkrtos_sdk\Debug\libmkrtos_sdk.a(dyn_syscalls.o)
io_cancel                                         D:\Project\MyProject1\mkrtos_real\mkrtos_sdk\Debug\libmkrtos_sdk.a(dyn_syscalls.o)
io_destroy                                        D:\Project\MyProject1\mkrtos_real\mkrtos_sdk\Debug\libmkrtos_sdk.a(dyn_syscalls.o)
io_getevents                                      D:\Project\MyProject1\mkrtos_real\mkrtos_sdk\Debug\libmkrtos_sdk.a(dyn_syscalls.o)
io_setup                                          D:\Project\MyProject1\mkrtos_real\mkrtos_sdk\Debug\libmkrtos_sdk.a(dyn_syscalls.o)
io_submit                                         D:\Project\MyProject1\mkrtos_real\mkrtos_sdk\Debug\libmkrtos_sdk.a(dyn_syscalls.o)
ioctl                                             D:\Project\MyProject1\mkrtos_real\mkrtos_sdk\Debug\libmkrtos_sdk.a(dyn_syscalls.o)
                                                  D:\Project\MyProject1\mkrtos_real\mkrtos_sdk\Debug\libmkrtos_sdk.a(isatty.o)
isalnum                                           D:\Project\MyProject1\mkrtos_real\mkrtos_sdk\Debug\libmkrtos_sdk.a(isalnum.o)
                                                  D:\Project\MyProject1\mkrtos_real\mkrtos_sdk\Debug\libmkrtos_sdk.a(strtoll.o)
                                                  D:\Project\MyProject1\mkrtos_real\mkrtos_sdk\Debug\libmkrtos_sdk.a(strtol.o)
isatty                                            D:\Project\MyProject1\mkrtos_real\mkrtos_sdk\Debug\libmkrtos_sdk.a(isatty.o)
                                                  D:\Project\MyProject1\mkrtos_real\mkrtos_sdk\Debug\libmkrtos_sdk.a(stdin.o)
                                                  D:\Project\MyProject1\mkrtos_real\mkrtos_sdk\Debug\libmkrtos_sdk.a(fwrite.o)
isspace                                           D:\Project\MyProject1\mkrtos_real\mkrtos_sdk\Debug\libmkrtos_sdk.a(isspace.o)
                                                  D:\Project\MyProject1\mkrtos_real\mkrtos_sdk\Debug\libmkrtos_sdk.a(__v_scanf.o)
                                                  D:\Project\MyProject1\mkrtos_real\mkrtos_sdk\Debug\libmkrtos_sdk.a(strtoull.o)
                                                  D:\Project\MyProject1\mkrtos_real\mkrtos_sdk\Debug\libmkrtos_sdk.a(strtoul.o)
                                                  D:\Project\MyProject1\mkrtos_real\mkrtos_sdk\Debug\libmkrtos_sdk.a(strtoll.o)
                                                  D:\Project\MyProject1\mkrtos_real\mkrtos_sdk\Debug\libmkrtos_sdk.a(strtol.o)
isxdigit                                          D:\Project\MyProject1\mkrtos_real\mkrtos_sdk\Debug\libmkrtos_sdk.a(isxdigit.o)
                                                  D:\Project\MyProject1\mkrtos_real\mkrtos_sdk\Debug\libmkrtos_sdk.a(strtoull.o)
                                                  D:\Project\MyProject1\mkrtos_real\mkrtos_sdk\Debug\libmkrtos_sdk.a(strtoul.o)
keyctl                                            D:\Project\MyProject1\mkrtos_real\mkrtos_sdk\Debug\libmkrtos_sdk.a(dyn_syscalls.o)
kill                                              D:\Project\MyProject1\mkrtos_real\mkrtos_sdk\Debug\libmkrtos_sdk.a(dyn_syscalls.o)
klogctl                                           D:\Project\MyProject1\mkrtos_real\mkrtos_sdk\Debug\libmkrtos_sdk.a(dyn_syscalls.o)
lchown                                            D:\Project\MyProject1\mkrtos_real\mkrtos_sdk\Debug\libmkrtos_sdk.a(dyn_syscalls.o)
lchown32                                          D:\Project\MyProject1\mkrtos_real\mkrtos_sdk\Debug\libmkrtos_sdk.a(dyn_syscalls.o)
lgetxattr                                         D:\Project\MyProject1\mkrtos_real\mkrtos_sdk\Debug\libmkrtos_sdk.a(dyn_syscalls.o)
link                                              D:\Project\MyProject1\mkrtos_real\mkrtos_sdk\Debug\libmkrtos_sdk.a(dyn_syscalls.o)
listxattr                                         D:\Project\MyProject1\mkrtos_real\mkrtos_sdk\Debug\libmkrtos_sdk.a(dyn_syscalls.o)
llistxattr                                        D:\Project\MyProject1\mkrtos_real\mkrtos_sdk\Debug\libmkrtos_sdk.a(dyn_syscalls.o)
llseek                                            D:\Project\MyProject1\mkrtos_real\mkrtos_sdk\Debug\libmkrtos_sdk.a(dyn_syscalls.o)
localtime                                         D:\Project\MyProject1\mkrtos_real\mkrtos_sdk\Debug\libmkrtos_sdk.a(localtime.o)
                                                  ./src/tcc/tcc.o
localtime_r                                       D:\Project\MyProject1\mkrtos_real\mkrtos_sdk\Debug\libmkrtos_sdk.a(localtime_r.o)
                                                  D:\Project\MyProject1\mkrtos_real\mkrtos_sdk\Debug\libmkrtos_sdk.a(localtime.o)
longjmp                                           D:\Project\MyProject1\mkrtos_real\mkrtos_sdk\Debug\libmkrtos_sdk.a(longjmp.o)
                                                  ./src/tcc/tcc.o
lremovexattr                                      D:\Project\MyProject1\mkrtos_real\mkrtos_sdk\Debug\libmkrtos_sdk.a(dyn_syscalls.o)
lseek                                             D:\Project\MyProject1\mkrtos_real\mkrtos_sdk\Debug\libmkrtos_sdk.a(dyn_syscalls.o)
                                                  D:\Project\MyProject1\mkrtos_real\mkrtos_sdk\Debug\libmkrtos_sdk.a(ftell.o)
                                                  D:\Project\MyProject1\mkrtos_real\mkrtos_sdk\Debug\libmkrtos_sdk.a(fseek.o)
                                                  D:\Project\MyProject1\mkrtos_real\mkrtos_sdk\Debug\libmkrtos_sdk.a(fflush.o)
                                                  D:\Project\MyProject1\mkrtos_real\mkrtos_sdk\Debug\libmkrtos_sdk.a(tzfile.o)
                                                  ./src/tcc/tcc.o
lsetxattr                                         D:\Project\MyProject1\mkrtos_real\mkrtos_sdk\Debug\libmkrtos_sdk.a(dyn_syscalls.o)
lstat                                             D:\Project\MyProject1\mkrtos_real\mkrtos_sdk\Debug\libmkrtos_sdk.a(dyn_syscalls.o)
main                                              ./src/tcc/tcc.o
                                                  D:\Project\MyProject1\mkrtos_real\mkrtos_sdk\Debug\libmkrtos_sdk.a(__main.o)
                                                  D:\Project\MyProject1\mkrtos_real\mkrtos_sdk\Debug\libmkrtos_sdk.a(stackgap-g.o)
malloc                                            D:\Project\MyProject1\mkrtos_real\mkrtos_sdk\Debug\libmkrtos_sdk.a(alloc.o)
                                                  D:\Project\MyProject1\mkrtos_real\mkrtos_sdk\Debug\libmkrtos_sdk.a(fdglue2.o)
                                                  ./src/tcc/tcc.o
mbind                                             D:\Project\MyProject1\mkrtos_real\mkrtos_sdk\Debug\libmkrtos_sdk.a(dyn_syscalls.o)
memccpy                                           D:\Project\MyProject1\mkrtos_real\mkrtos_sdk\Debug\libmkrtos_sdk.a(memccpy.o)
                                                  D:\Project\MyProject1\mkrtos_real\mkrtos_sdk\Debug\libmkrtos_sdk.a(strncpy.o)
memcmp                                            D:\Project\MyProject1\mkrtos_real\mkrtos_sdk\Debug\libmkrtos_sdk.a(memcmp.o)
                                                  D:\Project\MyProject1\mkrtos_real\mkrtos_sdk\Debug\libmkrtos_sdk.a(strstr.o)
                                                  D:\Project\MyProject1\mkrtos_real\mkrtos_sdk\Debug\libmkrtos_sdk.a(getenv.o)
                                                  ./src/tcc/tcc.o
memcpy                                            D:\Project\MyProject1\mkrtos_real\mkrtos_sdk\Debug\libmkrtos_sdk.a(memcpy.o)
                                                  D:\Project\MyProject1\mkrtos_real\mkrtos_sdk\Debug\libmkrtos_sdk.a(stackgap-g.o)
                                                  D:\Project\MyProject1\mkrtos_real\mkrtos_sdk\Debug\libmkrtos_sdk.a(vsnprintf.o)
                                                  D:\Project\MyProject1\mkrtos_real\mkrtos_sdk\Debug\libmkrtos_sdk.a(alloc.o)
                                                  D:\Project\MyProject1\mkrtos_real\mkrtos_sdk\Debug\libmkrtos_sdk.a(fwrite.o)
                                                  D:\Project\MyProject1\mkrtos_real\mkrtos_sdk\Debug\libmkrtos_sdk.a(fread.o)
                                                  ./src/tcc/tcc.o
memmove                                           D:\Project\MyProject1\mkrtos_real\mkrtos_sdk\Debug\libmkrtos_sdk.a(memmove.o)
                                                  D:\Project\MyProject1\mkrtos_real\mkrtos_sdk\Debug\libmkrtos_sdk.a(__ltostr.o)
                                                  ./src/tcc/tcc.o
memset                                            D:\Project\MyProject1\mkrtos_real\mkrtos_sdk\Debug\libmkrtos_sdk.a(memset.o)
                                                  D:\Project\MyProject1\mkrtos_real\mkrtos_sdk\Debug\libmkrtos_sdk.a(__v_scanf.o)
                                                  D:\Project\MyProject1\mkrtos_real\mkrtos_sdk\Debug\libmkrtos_sdk.a(stackgap-g.o)
                                                  D:\Project\MyProject1\mkrtos_real\mkrtos_sdk\Debug\libmkrtos_sdk.a(alloc.o)
                                                  ./src/tcc/tcc.o
mincore                                           D:\Project\MyProject1\mkrtos_real\mkrtos_sdk\Debug\libmkrtos_sdk.a(dyn_syscalls.o)
mkdir                                             D:\Project\MyProject1\mkrtos_real\mkrtos_sdk\Debug\libmkrtos_sdk.a(dyn_syscalls.o)
mknod                                             D:\Project\MyProject1\mkrtos_real\mkrtos_sdk\Debug\libmkrtos_sdk.a(dyn_syscalls.o)
mlock                                             D:\Project\MyProject1\mkrtos_real\mkrtos_sdk\Debug\libmkrtos_sdk.a(dyn_syscalls.o)
mlockall                                          D:\Project\MyProject1\mkrtos_real\mkrtos_sdk\Debug\libmkrtos_sdk.a(dyn_syscalls.o)
mmap                                              D:\Project\MyProject1\mkrtos_real\mkrtos_sdk\Debug\libmkrtos_sdk.a(__mmap.o)
                                                  D:\Project\MyProject1\mkrtos_real\mkrtos_sdk\Debug\libmkrtos_sdk.a(alloc.o)
                                                  D:\Project\MyProject1\mkrtos_real\mkrtos_sdk\Debug\libmkrtos_sdk.a(tzfile.o)
mount                                             D:\Project\MyProject1\mkrtos_real\mkrtos_sdk\Debug\libmkrtos_sdk.a(dyn_syscalls.o)
mprotect                                          D:\Project\MyProject1\mkrtos_real\mkrtos_sdk\Debug\libmkrtos_sdk.a(dyn_syscalls.o)
mq_notify                                         D:\Project\MyProject1\mkrtos_real\mkrtos_sdk\Debug\libmkrtos_sdk.a(dyn_syscalls.o)
mq_open                                           D:\Project\MyProject1\mkrtos_real\mkrtos_sdk\Debug\libmkrtos_sdk.a(dyn_syscalls.o)
mq_setattr                                        D:\Project\MyProject1\mkrtos_real\mkrtos_sdk\Debug\libmkrtos_sdk.a(dyn_syscalls.o)
mq_timedreceive                                   D:\Project\MyProject1\mkrtos_real\mkrtos_sdk\Debug\libmkrtos_sdk.a(dyn_syscalls.o)
mq_timedsend                                      D:\Project\MyProject1\mkrtos_real\mkrtos_sdk\Debug\libmkrtos_sdk.a(dyn_syscalls.o)
mq_unlink                                         D:\Project\MyProject1\mkrtos_real\mkrtos_sdk\Debug\libmkrtos_sdk.a(dyn_syscalls.o)
mremap                                            D:\Project\MyProject1\mkrtos_real\mkrtos_sdk\Debug\libmkrtos_sdk.a(dyn_syscalls.o)
                                                  D:\Project\MyProject1\mkrtos_real\mkrtos_sdk\Debug\libmkrtos_sdk.a(alloc.o)
msync                                             D:\Project\MyProject1\mkrtos_real\mkrtos_sdk\Debug\libmkrtos_sdk.a(dyn_syscalls.o)
munlockall                                        D:\Project\MyProject1\mkrtos_real\mkrtos_sdk\Debug\libmkrtos_sdk.a(dyn_syscalls.o)
munmap                                            D:\Project\MyProject1\mkrtos_real\mkrtos_sdk\Debug\libmkrtos_sdk.a(dyn_syscalls.o)
                                                  D:\Project\MyProject1\mkrtos_real\mkrtos_sdk\Debug\libmkrtos_sdk.a(alloc.o)
                                                  D:\Project\MyProject1\mkrtos_real\mkrtos_sdk\Debug\libmkrtos_sdk.a(tzfile.o)
nanosleep                                         D:\Project\MyProject1\mkrtos_real\mkrtos_sdk\Debug\libmkrtos_sdk.a(dyn_syscalls.o)
ntohl                                             D:\Project\MyProject1\mkrtos_real\mkrtos_sdk\Debug\libmkrtos_sdk.a(htonl.o)
                                                  D:\Project\MyProject1\mkrtos_real\mkrtos_sdk\Debug\libmkrtos_sdk.a(tzfile.o)
open                                              D:\Project\MyProject1\mkrtos_real\mkrtos_sdk\Debug\libmkrtos_sdk.a(dyn_syscalls.o)
                                                  D:\Project\MyProject1\mkrtos_real\mkrtos_sdk\Debug\libmkrtos_sdk.a(tzfile.o)
                                                  ./src/tcc/tcc.o
p2c_addr                                          D:\Project\MyProject1\mkrtos_real\mkrtos_sdk\Debug\libmkrtos_sdk.a(dyn_syscalls.o)
pause                                             D:\Project\MyProject1\mkrtos_real\mkrtos_sdk\Debug\libmkrtos_sdk.a(dyn_syscalls.o)
personality                                       D:\Project\MyProject1\mkrtos_real\mkrtos_sdk\Debug\libmkrtos_sdk.a(dyn_syscalls.o)
pipe                                              D:\Project\MyProject1\mkrtos_real\mkrtos_sdk\Debug\libmkrtos_sdk.a(dyn_syscalls.o)
poll                                              D:\Project\MyProject1\mkrtos_real\mkrtos_sdk\Debug\libmkrtos_sdk.a(dyn_syscalls.o)
pread64                                           D:\Project\MyProject1\mkrtos_real\mkrtos_sdk\Debug\libmkrtos_sdk.a(dyn_syscalls.o)
printf                                            D:\Project\MyProject1\mkrtos_real\mkrtos_sdk\Debug\libmkrtos_sdk.a(printf.o)
                                                  ./src/tcc/tcc.o
program_invocation_name                           D:\Project\MyProject1\mkrtos_real\mkrtos_sdk\Debug\libmkrtos_sdk.a(stackgap-g.o)
program_invocation_short_name                     D:\Project\MyProject1\mkrtos_real\mkrtos_sdk\Debug\libmkrtos_sdk.a(stackgap-g.o)
pwrite64                                          D:\Project\MyProject1\mkrtos_real\mkrtos_sdk\Debug\libmkrtos_sdk.a(dyn_syscalls.o)
qsort                                             D:\Project\MyProject1\mkrtos_real\mkrtos_sdk\Debug\libmkrtos_sdk.a(qsort.o)
                                                  ./src/tcc/tcc.o
quotactl                                          D:\Project\MyProject1\mkrtos_real\mkrtos_sdk\Debug\libmkrtos_sdk.a(dyn_syscalls.o)
rand                                              D:\Project\MyProject1\mkrtos_real\mkrtos_sdk\Debug\libmkrtos_sdk.a(rand.o)
                                                  D:\Project\MyProject1\mkrtos_real\mkrtos_sdk\Debug\libmkrtos_sdk.a(qsort.o)
rand_r                                            D:\Project\MyProject1\mkrtos_real\mkrtos_sdk\Debug\libmkrtos_sdk.a(rand_r.o)
                                                  D:\Project\MyProject1\mkrtos_real\mkrtos_sdk\Debug\libmkrtos_sdk.a(rand.o)
random                                            D:\Project\MyProject1\mkrtos_real\mkrtos_sdk\Debug\libmkrtos_sdk.a(rand.o)
read                                              D:\Project\MyProject1\mkrtos_real\mkrtos_sdk\Debug\libmkrtos_sdk.a(dyn_syscalls.o)
                                                  ./src/tcc/tcc.o
readahead                                         D:\Project\MyProject1\mkrtos_real\mkrtos_sdk\Debug\libmkrtos_sdk.a(dyn_syscalls.o)
readlink                                          D:\Project\MyProject1\mkrtos_real\mkrtos_sdk\Debug\libmkrtos_sdk.a(dyn_syscalls.o)
readv                                             D:\Project\MyProject1\mkrtos_real\mkrtos_sdk\Debug\libmkrtos_sdk.a(dyn_syscalls.o)
realloc                                           D:\Project\MyProject1\mkrtos_real\mkrtos_sdk\Debug\libmkrtos_sdk.a(alloc.o)
                                                  ./src/tcc/tcc.o
reloc                                             D:\Project\MyProject1\mkrtos_real\mkrtos_sdk\Debug\libmkrtos_sdk.a(reloc.o)
                                                  D:\Project\MyProject1\mkrtos_real\mkrtos_sdk\Debug\libmkrtos_sdk.a(start.o)
remap_file_pages                                  D:\Project\MyProject1\mkrtos_real\mkrtos_sdk\Debug\libmkrtos_sdk.a(dyn_syscalls.o)
remove                                            D:\Project\MyProject1\mkrtos_real\mkrtos_sdk\Debug\libmkrtos_sdk.a(remove.o)
                                                  ./src/tcc/tcc.o
removexattr                                       D:\Project\MyProject1\mkrtos_real\mkrtos_sdk\Debug\libmkrtos_sdk.a(dyn_syscalls.o)
rename                                            D:\Project\MyProject1\mkrtos_real\mkrtos_sdk\Debug\libmkrtos_sdk.a(dyn_syscalls.o)
request_key                                       D:\Project\MyProject1\mkrtos_real\mkrtos_sdk\Debug\libmkrtos_sdk.a(dyn_syscalls.o)
rindex                                            D:\Project\MyProject1\mkrtos_real\mkrtos_sdk\Debug\libmkrtos_sdk.a(strrchr.o)
rmdir                                             D:\Project\MyProject1\mkrtos_real\mkrtos_sdk\Debug\libmkrtos_sdk.a(dyn_syscalls.o)
                                                  D:\Project\MyProject1\mkrtos_real\mkrtos_sdk\Debug\libmkrtos_sdk.a(remove.o)
rt_sigreturn                                      D:\Project\MyProject1\mkrtos_real\mkrtos_sdk\Debug\libmkrtos_sdk.a(dyn_syscalls.o)
sched_get_priority_max                            D:\Project\MyProject1\mkrtos_real\mkrtos_sdk\Debug\libmkrtos_sdk.a(dyn_syscalls.o)
sched_get_priority_min                            D:\Project\MyProject1\mkrtos_real\mkrtos_sdk\Debug\libmkrtos_sdk.a(dyn_syscalls.o)
sched_getparam                                    D:\Project\MyProject1\mkrtos_real\mkrtos_sdk\Debug\libmkrtos_sdk.a(dyn_syscalls.o)
sched_getscheduler                                D:\Project\MyProject1\mkrtos_real\mkrtos_sdk\Debug\libmkrtos_sdk.a(dyn_syscalls.o)
sched_rr_get_interval                             D:\Project\MyProject1\mkrtos_real\mkrtos_sdk\Debug\libmkrtos_sdk.a(dyn_syscalls.o)
sched_setaffinity                                 D:\Project\MyProject1\mkrtos_real\mkrtos_sdk\Debug\libmkrtos_sdk.a(dyn_syscalls.o)
sched_setparam                                    D:\Project\MyProject1\mkrtos_real\mkrtos_sdk\Debug\libmkrtos_sdk.a(dyn_syscalls.o)
sched_setscheduler                                D:\Project\MyProject1\mkrtos_real\mkrtos_sdk\Debug\libmkrtos_sdk.a(dyn_syscalls.o)
sched_yield                                       D:\Project\MyProject1\mkrtos_real\mkrtos_sdk\Debug\libmkrtos_sdk.a(dyn_syscalls.o)
select                                            D:\Project\MyProject1\mkrtos_real\mkrtos_sdk\Debug\libmkrtos_sdk.a(dyn_syscalls.o)
sendfile                                          D:\Project\MyProject1\mkrtos_real\mkrtos_sdk\Debug\libmkrtos_sdk.a(dyn_syscalls.o)
sendfile64                                        D:\Project\MyProject1\mkrtos_real\mkrtos_sdk\Debug\libmkrtos_sdk.a(dyn_syscalls.o)
set_mempolicy                                     D:\Project\MyProject1\mkrtos_real\mkrtos_sdk\Debug\libmkrtos_sdk.a(dyn_syscalls.o)
set_tid_address                                   D:\Project\MyProject1\mkrtos_real\mkrtos_sdk\Debug\libmkrtos_sdk.a(dyn_syscalls.o)
setdomainname                                     D:\Project\MyProject1\mkrtos_real\mkrtos_sdk\Debug\libmkrtos_sdk.a(dyn_syscalls.o)
setfsgid                                          D:\Project\MyProject1\mkrtos_real\mkrtos_sdk\Debug\libmkrtos_sdk.a(dyn_syscalls.o)
setfsgid32                                        D:\Project\MyProject1\mkrtos_real\mkrtos_sdk\Debug\libmkrtos_sdk.a(dyn_syscalls.o)
setfsuid                                          D:\Project\MyProject1\mkrtos_real\mkrtos_sdk\Debug\libmkrtos_sdk.a(dyn_syscalls.o)
setfsuid32                                        D:\Project\MyProject1\mkrtos_real\mkrtos_sdk\Debug\libmkrtos_sdk.a(dyn_syscalls.o)
setgid                                            D:\Project\MyProject1\mkrtos_real\mkrtos_sdk\Debug\libmkrtos_sdk.a(dyn_syscalls.o)
setgid32                                          D:\Project\MyProject1\mkrtos_real\mkrtos_sdk\Debug\libmkrtos_sdk.a(dyn_syscalls.o)
setgroups                                         D:\Project\MyProject1\mkrtos_real\mkrtos_sdk\Debug\libmkrtos_sdk.a(dyn_syscalls.o)
sethostname                                       D:\Project\MyProject1\mkrtos_real\mkrtos_sdk\Debug\libmkrtos_sdk.a(dyn_syscalls.o)
setitimer                                         D:\Project\MyProject1\mkrtos_real\mkrtos_sdk\Debug\libmkrtos_sdk.a(dyn_syscalls.o)
setjmp                                            D:\Project\MyProject1\mkrtos_real\mkrtos_sdk\Debug\libmkrtos_sdk.a(dyn_syscalls.o)
setpgid                                           D:\Project\MyProject1\mkrtos_real\mkrtos_sdk\Debug\libmkrtos_sdk.a(dyn_syscalls.o)
setpriority                                       D:\Project\MyProject1\mkrtos_real\mkrtos_sdk\Debug\libmkrtos_sdk.a(dyn_syscalls.o)
setregid                                          D:\Project\MyProject1\mkrtos_real\mkrtos_sdk\Debug\libmkrtos_sdk.a(dyn_syscalls.o)
setregid32                                        D:\Project\MyProject1\mkrtos_real\mkrtos_sdk\Debug\libmkrtos_sdk.a(dyn_syscalls.o)
setresgid                                         D:\Project\MyProject1\mkrtos_real\mkrtos_sdk\Debug\libmkrtos_sdk.a(dyn_syscalls.o)
setresgid32                                       D:\Project\MyProject1\mkrtos_real\mkrtos_sdk\Debug\libmkrtos_sdk.a(dyn_syscalls.o)
setresuid                                         D:\Project\MyProject1\mkrtos_real\mkrtos_sdk\Debug\libmkrtos_sdk.a(dyn_syscalls.o)
setreuid                                          D:\Project\MyProject1\mkrtos_real\mkrtos_sdk\Debug\libmkrtos_sdk.a(dyn_syscalls.o)
setreuid32                                        D:\Project\MyProject1\mkrtos_real\mkrtos_sdk\Debug\libmkrtos_sdk.a(dyn_syscalls.o)
setrlimit                                         D:\Project\MyProject1\mkrtos_real\mkrtos_sdk\Debug\libmkrtos_sdk.a(dyn_syscalls.o)
setsid                                            D:\Project\MyProject1\mkrtos_real\mkrtos_sdk\Debug\libmkrtos_sdk.a(dyn_syscalls.o)
settimeofday                                      D:\Project\MyProject1\mkrtos_real\mkrtos_sdk\Debug\libmkrtos_sdk.a(dyn_syscalls.o)
setuid                                            D:\Project\MyProject1\mkrtos_real\mkrtos_sdk\Debug\libmkrtos_sdk.a(dyn_syscalls.o)
setuid32                                          D:\Project\MyProject1\mkrtos_real\mkrtos_sdk\Debug\libmkrtos_sdk.a(dyn_syscalls.o)
setxattr                                          D:\Project\MyProject1\mkrtos_real\mkrtos_sdk\Debug\libmkrtos_sdk.a(dyn_syscalls.o)
sigaltstack                                       D:\Project\MyProject1\mkrtos_real\mkrtos_sdk\Debug\libmkrtos_sdk.a(dyn_syscalls.o)
siglongjmp                                        D:\Project\MyProject1\mkrtos_real\mkrtos_sdk\Debug\libmkrtos_sdk.a(longjmp.o)
sigprocmask                                       D:\Project\MyProject1\mkrtos_real\mkrtos_sdk\Debug\libmkrtos_sdk.a(sigprocmask.o)
                                                  D:\Project\MyProject1\mkrtos_real\mkrtos_sdk\Debug\libmkrtos_sdk.a(sigjmp.o)
                                                  D:\Project\MyProject1\mkrtos_real\mkrtos_sdk\Debug\libmkrtos_sdk.a(longjmp.o)
sigsetjmp                                         D:\Project\MyProject1\mkrtos_real\mkrtos_sdk\Debug\libmkrtos_sdk.a(dyn_syscalls.o)
snprintf                                          D:\Project\MyProject1\mkrtos_real\mkrtos_sdk\Debug\libmkrtos_sdk.a(snprintf.o)
                                                  ./src/tcc/tcc.o
sprintf                                           D:\Project\MyProject1\mkrtos_real\mkrtos_sdk\Debug\libmkrtos_sdk.a(sprintf.o)
                                                  ./src/tcc/tcc.o
srand                                             D:\Project\MyProject1\mkrtos_real\mkrtos_sdk\Debug\libmkrtos_sdk.a(rand.o)
srandom                                           D:\Project\MyProject1\mkrtos_real\mkrtos_sdk\Debug\libmkrtos_sdk.a(rand.o)
sscanf                                            D:\Project\MyProject1\mkrtos_real\mkrtos_sdk\Debug\libmkrtos_sdk.a(sscanf.o)
                                                  ./src/tcc/tcc.o
stackgap                                          D:\Project\MyProject1\mkrtos_real\mkrtos_sdk\Debug\libmkrtos_sdk.a(stackgap-g.o)
                                                  D:\Project\MyProject1\mkrtos_real\mkrtos_sdk\Debug\libmkrtos_sdk.a(start.o)
stat                                              D:\Project\MyProject1\mkrtos_real\mkrtos_sdk\Debug\libmkrtos_sdk.a(dyn_syscalls.o)
statfs                                            D:\Project\MyProject1\mkrtos_real\mkrtos_sdk\Debug\libmkrtos_sdk.a(dyn_syscalls.o)
stderr                                            D:\Project\MyProject1\mkrtos_real\mkrtos_sdk\Debug\libmkrtos_sdk.a(stderr.o)
                                                  ./src/tcc/tcc.o
stdin                                             D:\Project\MyProject1\mkrtos_real\mkrtos_sdk\Debug\libmkrtos_sdk.a(stdin.o)
stdout                                            D:\Project\MyProject1\mkrtos_real\mkrtos_sdk\Debug\libmkrtos_sdk.a(stdout.o)
                                                  D:\Project\MyProject1\mkrtos_real\mkrtos_sdk\Debug\libmkrtos_sdk.a(fflush.o)
                                                  ./src/tcc/tcc.o
strchr                                            D:\Project\MyProject1\mkrtos_real\mkrtos_sdk\Debug\libmkrtos_sdk.a(strchr.o)
                                                  ./src/tcc/tcc.o
strcmp                                            D:\Project\MyProject1\mkrtos_real\mkrtos_sdk\Debug\libmkrtos_sdk.a(strcmp.o)
                                                  ./src/tcc/tcc.o
strcoll                                           D:\Project\MyProject1\mkrtos_real\mkrtos_sdk\Debug\libmkrtos_sdk.a(strcmp.o)
strcpy                                            D:\Project\MyProject1\mkrtos_real\mkrtos_sdk\Debug\libmkrtos_sdk.a(strcpy.o)
                                                  ./src/tcc/tcc.o
strerror                                          D:\Project\MyProject1\mkrtos_real\mkrtos_sdk\Debug\libmkrtos_sdk.a(strerror.o)
                                                  ./src/tcc/tcc.o
strlen                                            D:\Project\MyProject1\mkrtos_real\mkrtos_sdk\Debug\libmkrtos_sdk.a(strlen.o)
                                                  D:\Project\MyProject1\mkrtos_real\mkrtos_sdk\Debug\libmkrtos_sdk.a(strstr.o)
                                                  D:\Project\MyProject1\mkrtos_real\mkrtos_sdk\Debug\libmkrtos_sdk.a(getenv.o)
                                                  D:\Project\MyProject1\mkrtos_real\mkrtos_sdk\Debug\libmkrtos_sdk.a(__v_printf.o)
                                                  D:\Project\MyProject1\mkrtos_real\mkrtos_sdk\Debug\libmkrtos_sdk.a(fputs.o)
                                                  ./src/tcc/tcc.o
strncmp                                           D:\Project\MyProject1\mkrtos_real\mkrtos_sdk\Debug\libmkrtos_sdk.a(strncmp.o)
                                                  ./src/tcc/tcc.o
strncpy                                           D:\Project\MyProject1\mkrtos_real\mkrtos_sdk\Debug\libmkrtos_sdk.a(strncpy.o)
                                                  ./src/tcc/tcc.o
strrchr                                           D:\Project\MyProject1\mkrtos_real\mkrtos_sdk\Debug\libmkrtos_sdk.a(strrchr.o)
                                                  ./src/tcc/tcc.o
strstr                                            D:\Project\MyProject1\mkrtos_real\mkrtos_sdk\Debug\libmkrtos_sdk.a(strstr.o)
                                                  D:\Project\MyProject1\mkrtos_real\mkrtos_sdk\Debug\libmkrtos_sdk.a(stackgap-g.o)
                                                  ./src/tcc/tcc.o
strtoimax                                         D:\Project\MyProject1\mkrtos_real\mkrtos_sdk\Debug\libmkrtos_sdk.a(strtoll.o)
strtol                                            D:\Project\MyProject1\mkrtos_real\mkrtos_sdk\Debug\libmkrtos_sdk.a(strtol.o)
                                                  D:\Project\MyProject1\mkrtos_real\mkrtos_sdk\Debug\libmkrtos_sdk.a(__v_scanf.o)
                                                  D:\Project\MyProject1\mkrtos_real\mkrtos_sdk\Debug\libmkrtos_sdk.a(__v_printf.o)
                                                  ./src/tcc/tcc.o
strtoll                                           D:\Project\MyProject1\mkrtos_real\mkrtos_sdk\Debug\libmkrtos_sdk.a(strtoll.o)
                                                  ./src/tcc/tcc.o
strtoul                                           D:\Project\MyProject1\mkrtos_real\mkrtos_sdk\Debug\libmkrtos_sdk.a(strtoul.o)
                                                  D:\Project\MyProject1\mkrtos_real\mkrtos_sdk\Debug\libmkrtos_sdk.a(strtol.o)
                                                  D:\Project\MyProject1\mkrtos_real\mkrtos_sdk\Debug\libmkrtos_sdk.a(__v_printf.o)
                                                  ./src/tcc/tcc.o
strtoull                                          D:\Project\MyProject1\mkrtos_real\mkrtos_sdk\Debug\libmkrtos_sdk.a(strtoull.o)
                                                  D:\Project\MyProject1\mkrtos_real\mkrtos_sdk\Debug\libmkrtos_sdk.a(strtoll.o)
                                                  ./src/tcc/tcc.o
strtoumax                                         D:\Project\MyProject1\mkrtos_real\mkrtos_sdk\Debug\libmkrtos_sdk.a(strtoull.o)
strtouq                                           D:\Project\MyProject1\mkrtos_real\mkrtos_sdk\Debug\libmkrtos_sdk.a(strtoull.o)
stuff_const_harder                                ./src/tcc/tcc.o
swapoff                                           D:\Project\MyProject1\mkrtos_real\mkrtos_sdk\Debug\libmkrtos_sdk.a(dyn_syscalls.o)
swapon                                            D:\Project\MyProject1\mkrtos_real\mkrtos_sdk\Debug\libmkrtos_sdk.a(dyn_syscalls.o)
symlink                                           D:\Project\MyProject1\mkrtos_real\mkrtos_sdk\Debug\libmkrtos_sdk.a(dyn_syscalls.o)
sync                                              D:\Project\MyProject1\mkrtos_real\mkrtos_sdk\Debug\libmkrtos_sdk.a(dyn_syscalls.o)
sysfs                                             D:\Project\MyProject1\mkrtos_real\mkrtos_sdk\Debug\libmkrtos_sdk.a(dyn_syscalls.o)
sysinfo                                           D:\Project\MyProject1\mkrtos_real\mkrtos_sdk\Debug\libmkrtos_sdk.a(dyn_syscalls.o)
tcc_add_file                                      ./src/tcc/tcc.o
tcc_add_include_path                              ./src/tcc/tcc.o
tcc_add_library                                   ./src/tcc/tcc.o
tcc_add_library_err                               ./src/tcc/tcc.o
tcc_add_library_path                              ./src/tcc/tcc.o
tcc_add_symbol                                    ./src/tcc/tcc.o
tcc_add_sysinclude_path                           ./src/tcc/tcc.o
tcc_basename                                      ./src/tcc/tcc.o
tcc_compile_string                                ./src/tcc/tcc.o
tcc_define_symbol                                 ./src/tcc/tcc.o
tcc_delete                                        ./src/tcc/tcc.o
tcc_enter_state                                   ./src/tcc/tcc.o
tcc_exit_state                                    ./src/tcc/tcc.o
tcc_fileextension                                 ./src/tcc/tcc.o
tcc_free                                          ./src/tcc/tcc.o
tcc_get_error_func                                ./src/tcc/tcc.o
tcc_get_error_opaque                              ./src/tcc/tcc.o
tcc_get_symbol                                    ./src/tcc/tcc.o
tcc_list_symbols                                  ./src/tcc/tcc.o
tcc_malloc                                        ./src/tcc/tcc.o
tcc_mallocz                                       ./src/tcc/tcc.o
tcc_new                                           ./src/tcc/tcc.o
tcc_output_file                                   ./src/tcc/tcc.o
tcc_parse_args                                    ./src/tcc/tcc.o
tcc_print_stats                                   ./src/tcc/tcc.o
tcc_realloc                                       ./src/tcc/tcc.o
tcc_set_error_func                                ./src/tcc/tcc.o
tcc_set_lib_path                                  ./src/tcc/tcc.o
tcc_set_options                                   ./src/tcc/tcc.o
tcc_set_output_type                               ./src/tcc/tcc.o
tcc_strdup                                        ./src/tcc/tcc.o
tcc_undefine_symbol                               ./src/tcc/tcc.o
tgkill                                            D:\Project\MyProject1\mkrtos_real\mkrtos_sdk\Debug\libmkrtos_sdk.a(dyn_syscalls.o)
time                                              D:\Project\MyProject1\mkrtos_real\mkrtos_sdk\Debug\libmkrtos_sdk.a(__time.o)
                                                  D:\Project\MyProject1\mkrtos_real\mkrtos_sdk\Debug\libmkrtos_sdk.a(tzfile.o)
                                                  ./src/tcc/tcc.o
timer_create                                      D:\Project\MyProject1\mkrtos_real\mkrtos_sdk\Debug\libmkrtos_sdk.a(dyn_syscalls.o)
timer_delete                                      D:\Project\MyProject1\mkrtos_real\mkrtos_sdk\Debug\libmkrtos_sdk.a(dyn_syscalls.o)
timer_getoverrun                                  D:\Project\MyProject1\mkrtos_real\mkrtos_sdk\Debug\libmkrtos_sdk.a(dyn_syscalls.o)
timer_gettime                                     D:\Project\MyProject1\mkrtos_real\mkrtos_sdk\Debug\libmkrtos_sdk.a(dyn_syscalls.o)
timer_settime                                     D:\Project\MyProject1\mkrtos_real\mkrtos_sdk\Debug\libmkrtos_sdk.a(dyn_syscalls.o)
times                                             D:\Project\MyProject1\mkrtos_real\mkrtos_sdk\Debug\libmkrtos_sdk.a(dyn_syscalls.o)
timezone                                          D:\Project\MyProject1\mkrtos_real\mkrtos_sdk\Debug\libmkrtos_sdk.a(timezone.o)
                                                  D:\Project\MyProject1\mkrtos_real\mkrtos_sdk\Debug\libmkrtos_sdk.a(tzfile.o)
tkill                                             D:\Project\MyProject1\mkrtos_real\mkrtos_sdk\Debug\libmkrtos_sdk.a(dyn_syscalls.o)
truncate                                          D:\Project\MyProject1\mkrtos_real\mkrtos_sdk\Debug\libmkrtos_sdk.a(dyn_syscalls.o)
tzname                                            D:\Project\MyProject1\mkrtos_real\mkrtos_sdk\Debug\libmkrtos_sdk.a(tzfile.o)
tzset                                             D:\Project\MyProject1\mkrtos_real\mkrtos_sdk\Debug\libmkrtos_sdk.a(tzfile.o)
umask                                             D:\Project\MyProject1\mkrtos_real\mkrtos_sdk\Debug\libmkrtos_sdk.a(dyn_syscalls.o)
umount2                                           D:\Project\MyProject1\mkrtos_real\mkrtos_sdk\Debug\libmkrtos_sdk.a(dyn_syscalls.o)
uname                                             D:\Project\MyProject1\mkrtos_real\mkrtos_sdk\Debug\libmkrtos_sdk.a(dyn_syscalls.o)
unlink                                            D:\Project\MyProject1\mkrtos_real\mkrtos_sdk\Debug\libmkrtos_sdk.a(dyn_syscalls.o)
                                                  D:\Project\MyProject1\mkrtos_real\mkrtos_sdk\Debug\libmkrtos_sdk.a(remove.o)
                                                  ./src/tcc/tcc.o
ustat                                             D:\Project\MyProject1\mkrtos_real\mkrtos_sdk\Debug\libmkrtos_sdk.a(dyn_syscalls.o)
vfprintf                                          D:\Project\MyProject1\mkrtos_real\mkrtos_sdk\Debug\libmkrtos_sdk.a(vfprintf.o)
                                                  D:\Project\MyProject1\mkrtos_real\mkrtos_sdk\Debug\libmkrtos_sdk.a(fprintf.o)
vhangup                                           D:\Project\MyProject1\mkrtos_real\mkrtos_sdk\Debug\libmkrtos_sdk.a(dyn_syscalls.o)
vprintf                                           D:\Project\MyProject1\mkrtos_real\mkrtos_sdk\Debug\libmkrtos_sdk.a(vprintf.o)
                                                  D:\Project\MyProject1\mkrtos_real\mkrtos_sdk\Debug\libmkrtos_sdk.a(printf.o)
vserver                                           D:\Project\MyProject1\mkrtos_real\mkrtos_sdk\Debug\libmkrtos_sdk.a(dyn_syscalls.o)
vsnprintf                                         D:\Project\MyProject1\mkrtos_real\mkrtos_sdk\Debug\libmkrtos_sdk.a(vsnprintf.o)
                                                  D:\Project\MyProject1\mkrtos_real\mkrtos_sdk\Debug\libmkrtos_sdk.a(vsprintf.o)
                                                  D:\Project\MyProject1\mkrtos_real\mkrtos_sdk\Debug\libmkrtos_sdk.a(snprintf.o)
                                                  ./src/tcc/tcc.o
vsprintf                                          D:\Project\MyProject1\mkrtos_real\mkrtos_sdk\Debug\libmkrtos_sdk.a(vsprintf.o)
                                                  D:\Project\MyProject1\mkrtos_real\mkrtos_sdk\Debug\libmkrtos_sdk.a(sprintf.o)
vsscanf                                           D:\Project\MyProject1\mkrtos_real\mkrtos_sdk\Debug\libmkrtos_sdk.a(vsscanf.o)
                                                  D:\Project\MyProject1\mkrtos_real\mkrtos_sdk\Debug\libmkrtos_sdk.a(sscanf.o)
wait4                                             D:\Project\MyProject1\mkrtos_real\mkrtos_sdk\Debug\libmkrtos_sdk.a(dyn_syscalls.o)
waitpid                                           D:\Project\MyProject1\mkrtos_real\mkrtos_sdk\Debug\libmkrtos_sdk.a(dyn_syscalls.o)
write                                             D:\Project\MyProject1\mkrtos_real\mkrtos_sdk\Debug\libmkrtos_sdk.a(dyn_syscalls.o)
                                                  D:\Project\MyProject1\mkrtos_real\mkrtos_sdk\Debug\libmkrtos_sdk.a(vprintf.o)
                                                  D:\Project\MyProject1\mkrtos_real\mkrtos_sdk\Debug\libmkrtos_sdk.a(fflush.o)
writev                                            D:\Project\MyProject1\mkrtos_real\mkrtos_sdk\Debug\libmkrtos_sdk.a(dyn_syscalls.o)
